(dp1
S'output'
p2
S"<type 'exceptions.SyntaxError'> invalid syntax (default/post.html, line 4)"
p3
sS'layer'
p4
S'E:\\Programming\\Python\\web2py\\applications\\vote_up\\views\\default/post.html'
p5
sS'code'
p6
S'response.write(\'<!DOCTYPE HTML>\\r\\n<html lang="en">\\r\\n    <head>\\r\\n        <title>Vote-Up</title>\\r\\n        <meta http-equiv="Content-Type" content="text/html; charset=utf-8" />\\r\\n        <meta http-equiv="Content-Language" content="EN" />\\r\\n        <meta name="keywords" content="vote up" />\\r\\n        <style type="text/css">\\r\\n            .new_post {\\r\\n                float:right;\\r\\n                border-style: solid;\\r\\n                border-width: 2px;\\r\\n                border-color: grey;\\r\\n                margin-right:2px;\\r\\n            }\\r\\n            .post {\\r\\n                width:100%;\\r\\n                font-size:120%;\\r\\n            }\\r\\n        </style>\\r\\n    </head>\\r\\n    <body>\\r\\n        <div class="new_post">\\r\\n            <form action="/\', escape=False)\nresponse.write(request.application)\nresponse.write(\'/default/new_post" method="POST" onsubmit="JavaScript:post_form(this, alert); return false;">\\r\\n                <h3><input type="text" name="title" /></h3>\\r\\n                <p><textarea name="message"></textarea></p>\\r\\n                <input type="submit" value="Create New Response" />\\r\\n            </form>\\r\\n        </div>\\r\\n        \', escape=False)\nif responses:for response in responses:\n    response.write(\'\\r\\n        <div class="response">\\r\\n            <div class="vote">\\r\\n                <image src="/\', escape=False)\n    response.write(request.application)\n    response.write(\'/static/images/up.png" onclick="submit(\\\'/\', escape=False)\n    response.write(request.application)\n    response.write(\'/default/vote?up=1&response=\', escape=False)\n    response.write(response.id)\n    response.write("\', function(votes){document.getElementById(\'", escape=False)\n    response.write(response.id)\n    response.write(\'\\\').innerHTML=votes})" />\\r\\n                <p id="\', escape=False)\n    response.write(response.id)\n    response.write(\'">\', escape=False)\n    response.write(response.votes)\n    response.write(\'</p>\\r\\n                <image src="/\', escape=False)\n    response.write(request.application)\n    response.write(\'/static/images/dn.png" onclick="submit(\\\'/\', escape=False)\n    response.write(request.application)\n    response.write(\'/default/vote?up=0&response=\', escape=False)\n    response.write(response.id)\n    response.write("\', function(votes){document.getElementById(\'", escape=False)\n    response.write(response.id)\n    response.write(\'\\\').innerHTML=votes})" />\\r\\n            </div><br/>\\r\\n            <h3>\', escape=False)\n    response.write(response.title)\n    response.write(\'</h3>\\r\\n            <p>\', escape=False)\n    response.write(response.message)\n    response.write(\'</p>\\r\\n            <hr/>\\r\\n        </div>\\r\\n        \', escape=False)\n    pass\nresponse.write(\'\\r\\n        <script type="text/JavaScript">\\r\\n            \\r\\n        </script>\\r\\n        <script type="text/JavaScript" src="/\', escape=False)\nresponse.write(request.application)\nresponse.write(\'/static/js/XHRSubmit.js"></script>\\r\\n    </body>\\r\\n</html>\', escape=False)'
p7
sS'snapshot'
p8
(dp9
S'exception'
p10
(dp11
S'__getslice__'
p12
S"<method-wrapper '__getslice__' of exceptions.SyntaxError object>"
p13
sS'text'
p14
S"'if responses:for response in responses:\\n'"
p15
sS'__str__'
p16
S"<method-wrapper '__str__' of exceptions.SyntaxError object>"
p17
sS'__reduce__'
p18
S'<built-in method __reduce__ of exceptions.SyntaxError object>'
p19
sS'__dict__'
p20
S'{}'
p21
sS'__sizeof__'
p22
S'<built-in method __sizeof__ of exceptions.SyntaxError object>'
p23
sS'__init__'
p24
S"<method-wrapper '__init__' of exceptions.SyntaxError object>"
p25
sS'__setattr__'
p26
S"<method-wrapper '__setattr__' of exceptions.SyntaxError object>"
p27
sS'__reduce_ex__'
p28
S'<built-in method __reduce_ex__ of exceptions.SyntaxError object>'
p29
sS'__new__'
p30
S'<built-in method __new__ of type object>'
p31
sS'__format__'
p32
S'<built-in method __format__ of exceptions.SyntaxError object>'
p33
sS'__class__'
p34
S"<type 'exceptions.SyntaxError'>"
p35
sS'filename'
p36
S"r'E:\\Programming\\Python\\web2py\\applications\\vote_up\\views\\default/post.html'"
p37
sS'lineno'
p38
S'4'
sS'msg'
p39
S"'invalid syntax'"
p40
sS'__doc__'
p41
S"'Invalid syntax.'"
p42
sS'__getitem__'
p43
S"<method-wrapper '__getitem__' of exceptions.SyntaxError object>"
p44
sS'__setstate__'
p45
S'<built-in method __setstate__ of exceptions.SyntaxError object>'
p46
sS'__getattribute__'
p47
S"<method-wrapper '__getattribute__' of exceptions.SyntaxError object>"
p48
sS'print_file_and_line'
p49
S'None'
p50
sS'args'
p51
S"('invalid syntax', (r'E:\\Programming\\Python\\web2py\\applications\\vote_up\\views\\default/post.html', 4, 16, 'if responses:for response in responses:\\n'))"
p52
sS'__subclasshook__'
p53
S'<built-in method __subclasshook__ of type object>'
p54
sS'offset'
p55
S'16'
p56
sS'__unicode__'
p57
S'<built-in method __unicode__ of exceptions.SyntaxError object>'
p58
sS'__delattr__'
p59
S"<method-wrapper '__delattr__' of exceptions.SyntaxError object>"
p60
sS'__repr__'
p61
S"<method-wrapper '__repr__' of exceptions.SyntaxError object>"
p62
sS'__hash__'
p63
S"<method-wrapper '__hash__' of exceptions.SyntaxError object>"
p64
ssS'evalue'
p65
S'invalid syntax (default/post.html, line 4)'
p66
sS'request'
p67
ccopy_reg
_reconstructor
p68
(cgluon.html
BEAUTIFY
p69
c__builtin__
object
p70
NtRp71
(dp72
S'attributes'
p73
(dp74
sS'components'
p75
(lp76
g68
(cgluon.html
TABLE
p77
g70
NtRp78
(dp79
g73
(dp80
S'level'
p81
I5
ssS'parent'
p82
Nsg75
(lp83
g68
(cgluon.html
TR
p84
g70
NtRp85
(dp86
g73
(dp87
sg82
g78
sg75
(lp88
g68
(cgluon.html
TD
p89
g70
NtRp90
(dp91
g73
(dp92
S'_style'
p93
S'font-weight:bold;vertical-align:top'
p94
ssg82
g85
sg75
(lp95
S'ajax'
p96
asbag68
(g89
g70
NtRp97
(dp98
g73
(dp99
S'_valign'
p100
S'top'
p101
ssg82
g85
sg75
(lp102
S':'
asbag68
(g89
g70
NtRp103
(dp104
g73
(dp105
sg82
g85
sg75
(lp106
g68
(g69
g70
NtRp107
(dp108
g73
(dp109
g81
I5
ssg82
g103
sg75
(lp110
S'False'
p111
asbasbasbag68
(g84
g70
NtRp112
(dp113
g73
(dp114
sg82
g78
sg75
(lp115
g68
(g89
g70
NtRp116
(dp117
g73
(dp118
g93
g94
ssg82
g112
sg75
(lp119
S'application'
p120
asbag68
(g89
g70
NtRp121
(dp122
g73
(dp123
g100
g101
ssg82
g112
sg75
(lp124
S':'
asbag68
(g89
g70
NtRp125
(dp126
g73
(dp127
sg82
g112
sg75
(lp128
g68
(g69
g70
NtRp129
(dp130
g73
(dp131
g81
I5
ssg82
g125
sg75
(lp132
S'vote_up'
p133
asbasbasbag68
(g84
g70
NtRp134
(dp135
g73
(dp136
sg82
g78
sg75
(lp137
g68
(g89
g70
NtRp138
(dp139
g73
(dp140
g93
g94
ssg82
g134
sg75
(lp141
g51
asbag68
(g89
g70
NtRp142
(dp143
g73
(dp144
g100
g101
ssg82
g134
sg75
(lp145
S':'
asbag68
(g89
g70
NtRp146
(dp147
g73
(dp148
sg82
g134
sg75
(lp149
g68
(g69
g70
NtRp150
(dp151
g73
(dp152
g81
I5
ssg82
g146
sg75
(lp153
g68
(g77
g70
NtRp154
(dp155
g73
(dp156
g81
I4
ssg82
Nsg75
(lp157
g68
(g84
g70
NtRp158
(dp159
g73
(dp160
sg82
g154
sg75
(lp161
g68
(g89
g70
NtRp162
(dp163
g73
(dp164
sg82
g158
sg75
(lp165
g68
(g69
g70
NtRp166
(dp167
g73
(dp168
g81
I4
ssg82
g162
sg75
(lp169
S'7'
asbasbasbasbasbasbasbag68
(g84
g70
NtRp170
(dp171
g73
(dp172
sg82
g78
sg75
(lp173
g68
(g89
g70
NtRp174
(dp175
g73
(dp176
g93
g94
ssg82
g170
sg75
(lp177
S'body'
p178
asbag68
(g89
g70
NtRp179
(dp180
g73
(dp181
g100
g101
ssg82
g170
sg75
(lp182
S':'
asbag68
(g89
g70
NtRp183
(dp184
g73
(dp185
sg82
g170
sg75
(lp186
g68
(g69
g70
NtRp187
(dp188
g73
(dp189
g81
I5
ssg82
g183
sg75
(lp190
S'<cStringIO.StringO object at 0x06CF0BA0>'
p191
asbasbasbag68
(g84
g70
NtRp192
(dp193
g73
(dp194
sg82
g78
sg75
(lp195
g68
(g89
g70
NtRp196
(dp197
g73
(dp198
g93
g94
ssg82
g192
sg75
(lp199
S'client'
p200
asbag68
(g89
g70
NtRp201
(dp202
g73
(dp203
g100
g101
ssg82
g192
sg75
(lp204
S':'
asbag68
(g89
g70
NtRp205
(dp206
g73
(dp207
sg82
g192
sg75
(lp208
g68
(g69
g70
NtRp209
(dp210
g73
(dp211
g81
I5
ssg82
g205
sg75
(lp212
S'127.0.0.1'
p213
asbasbasbag68
(g84
g70
NtRp214
(dp215
g73
(dp216
sg82
g78
sg75
(lp217
g68
(g89
g70
NtRp218
(dp219
g73
(dp220
g93
g94
ssg82
g214
sg75
(lp221
S'controller'
p222
asbag68
(g89
g70
NtRp223
(dp224
g73
(dp225
g100
g101
ssg82
g214
sg75
(lp226
S':'
asbag68
(g89
g70
NtRp227
(dp228
g73
(dp229
sg82
g214
sg75
(lp230
g68
(g69
g70
NtRp231
(dp232
g73
(dp233
g81
I5
ssg82
g227
sg75
(lp234
S'default'
p235
asbasbasbag68
(g84
g70
NtRp236
(dp237
g73
(dp238
sg82
g78
sg75
(lp239
g68
(g89
g70
NtRp240
(dp241
g73
(dp242
g93
g94
ssg82
g236
sg75
(lp243
S'cookies'
p244
asbag68
(g89
g70
NtRp245
(dp246
g73
(dp247
g100
g101
ssg82
g236
sg75
(lp248
S':'
asbag68
(g89
g70
NtRp249
(dp250
g73
(dp251
sg82
g236
sg75
(lp252
g68
(g69
g70
NtRp253
(dp254
g73
(dp255
g81
I5
ssg82
g249
sg75
(lp256
g68
(g77
g70
NtRp257
(dp258
g73
(dp259
g81
I4
ssg82
Nsg75
(lp260
g68
(g84
g70
NtRp261
(dp262
g73
(dp263
sg82
g257
sg75
(lp264
g68
(g89
g70
NtRp265
(dp266
g73
(dp267
g93
g94
ssg82
g261
sg75
(lp268
S'session_id_admin'
p269
asbag68
(g89
g70
NtRp270
(dp271
g73
(dp272
g100
g101
ssg82
g261
sg75
(lp273
S':'
asbag68
(g89
g70
NtRp274
(dp275
g73
(dp276
sg82
g261
sg75
(lp277
g68
(g69
g70
NtRp278
(dp279
g73
(dp280
g81
I4
ssg82
g274
sg75
(lp281
g68
(g77
g70
NtRp282
(dp283
g73
(dp284
g81
I3
ssg82
Nsg75
(lp285
g68
(g84
g70
NtRp286
(dp287
g73
(dp288
sg82
g282
sg75
(lp289
g68
(g89
g70
NtRp290
(dp291
g73
(dp292
g93
g94
ssg82
g286
sg75
(lp293
S'comment'
p294
asbag68
(g89
g70
NtRp295
(dp296
g73
(dp297
g100
g101
ssg82
g286
sg75
(lp298
S':'
asbag68
(g89
g70
NtRp299
(dp300
g73
(dp301
sg82
g286
sg75
(lp302
g68
(g69
g70
NtRp303
(dp304
g73
(dp305
g81
I3
ssg82
g299
sg75
(lp306
S''
asbasbasbag68
(g84
g70
NtRp307
(dp308
g73
(dp309
sg82
g282
sg75
(lp310
g68
(g89
g70
NtRp311
(dp312
g73
(dp313
g93
g94
ssg82
g307
sg75
(lp314
S'domain'
p315
asbag68
(g89
g70
NtRp316
(dp317
g73
(dp318
g100
g101
ssg82
g307
sg75
(lp319
S':'
asbag68
(g89
g70
NtRp320
(dp321
g73
(dp322
sg82
g307
sg75
(lp323
g68
(g69
g70
NtRp324
(dp325
g73
(dp326
g81
I3
ssg82
g320
sg75
(lp327
S''
asbasbasbag68
(g84
g70
NtRp328
(dp329
g73
(dp330
sg82
g282
sg75
(lp331
g68
(g89
g70
NtRp332
(dp333
g73
(dp334
g93
g94
ssg82
g328
sg75
(lp335
S'expires'
p336
asbag68
(g89
g70
NtRp337
(dp338
g73
(dp339
g100
g101
ssg82
g328
sg75
(lp340
S':'
asbag68
(g89
g70
NtRp341
(dp342
g73
(dp343
sg82
g328
sg75
(lp344
g68
(g69
g70
NtRp345
(dp346
g73
(dp347
g81
I3
ssg82
g341
sg75
(lp348
S''
asbasbasbag68
(g84
g70
NtRp349
(dp350
g73
(dp351
sg82
g282
sg75
(lp352
g68
(g89
g70
NtRp353
(dp354
g73
(dp355
g93
g94
ssg82
g349
sg75
(lp356
S'httponly'
p357
asbag68
(g89
g70
NtRp358
(dp359
g73
(dp360
g100
g101
ssg82
g349
sg75
(lp361
S':'
asbag68
(g89
g70
NtRp362
(dp363
g73
(dp364
sg82
g349
sg75
(lp365
g68
(g69
g70
NtRp366
(dp367
g73
(dp368
g81
I3
ssg82
g362
sg75
(lp369
S''
asbasbasbag68
(g84
g70
NtRp370
(dp371
g73
(dp372
sg82
g282
sg75
(lp373
g68
(g89
g70
NtRp374
(dp375
g73
(dp376
g93
g94
ssg82
g370
sg75
(lp377
S'max-age'
p378
asbag68
(g89
g70
NtRp379
(dp380
g73
(dp381
g100
g101
ssg82
g370
sg75
(lp382
S':'
asbag68
(g89
g70
NtRp383
(dp384
g73
(dp385
sg82
g370
sg75
(lp386
g68
(g69
g70
NtRp387
(dp388
g73
(dp389
g81
I3
ssg82
g383
sg75
(lp390
S''
asbasbasbag68
(g84
g70
NtRp391
(dp392
g73
(dp393
sg82
g282
sg75
(lp394
g68
(g89
g70
NtRp395
(dp396
g73
(dp397
g93
g94
ssg82
g391
sg75
(lp398
S'path'
p399
asbag68
(g89
g70
NtRp400
(dp401
g73
(dp402
g100
g101
ssg82
g391
sg75
(lp403
S':'
asbag68
(g89
g70
NtRp404
(dp405
g73
(dp406
sg82
g391
sg75
(lp407
g68
(g69
g70
NtRp408
(dp409
g73
(dp410
g81
I3
ssg82
g404
sg75
(lp411
S''
asbasbasbag68
(g84
g70
NtRp412
(dp413
g73
(dp414
sg82
g282
sg75
(lp415
g68
(g89
g70
NtRp416
(dp417
g73
(dp418
g93
g94
ssg82
g412
sg75
(lp419
S'secure'
p420
asbag68
(g89
g70
NtRp421
(dp422
g73
(dp423
g100
g101
ssg82
g412
sg75
(lp424
S':'
asbag68
(g89
g70
NtRp425
(dp426
g73
(dp427
sg82
g412
sg75
(lp428
g68
(g69
g70
NtRp429
(dp430
g73
(dp431
g81
I3
ssg82
g425
sg75
(lp432
S''
asbasbasbag68
(g84
g70
NtRp433
(dp434
g73
(dp435
sg82
g282
sg75
(lp436
g68
(g89
g70
NtRp437
(dp438
g73
(dp439
g93
g94
ssg82
g433
sg75
(lp440
S'version'
p441
asbag68
(g89
g70
NtRp442
(dp443
g73
(dp444
g100
g101
ssg82
g433
sg75
(lp445
S':'
asbag68
(g89
g70
NtRp446
(dp447
g73
(dp448
sg82
g433
sg75
(lp449
g68
(g69
g70
NtRp450
(dp451
g73
(dp452
g81
I3
ssg82
g446
sg75
(lp453
S''
asbasbasbasbasbasbasbag68
(g84
g70
NtRp454
(dp455
g73
(dp456
sg82
g257
sg75
(lp457
g68
(g89
g70
NtRp458
(dp459
g73
(dp460
g93
g94
ssg82
g454
sg75
(lp461
S'session_id_vote_up'
p462
asbag68
(g89
g70
NtRp463
(dp464
g73
(dp465
g100
g101
ssg82
g454
sg75
(lp466
S':'
asbag68
(g89
g70
NtRp467
(dp468
g73
(dp469
sg82
g454
sg75
(lp470
g68
(g69
g70
NtRp471
(dp472
g73
(dp473
g81
I4
ssg82
g467
sg75
(lp474
g68
(g77
g70
NtRp475
(dp476
g73
(dp477
g81
I3
ssg82
Nsg75
(lp478
g68
(g84
g70
NtRp479
(dp480
g73
(dp481
sg82
g475
sg75
(lp482
g68
(g89
g70
NtRp483
(dp484
g73
(dp485
g93
g94
ssg82
g479
sg75
(lp486
g294
asbag68
(g89
g70
NtRp487
(dp488
g73
(dp489
g100
g101
ssg82
g479
sg75
(lp490
S':'
asbag68
(g89
g70
NtRp491
(dp492
g73
(dp493
sg82
g479
sg75
(lp494
g68
(g69
g70
NtRp495
(dp496
g73
(dp497
g81
I3
ssg82
g491
sg75
(lp498
S''
asbasbasbag68
(g84
g70
NtRp499
(dp500
g73
(dp501
sg82
g475
sg75
(lp502
g68
(g89
g70
NtRp503
(dp504
g73
(dp505
g93
g94
ssg82
g499
sg75
(lp506
g315
asbag68
(g89
g70
NtRp507
(dp508
g73
(dp509
g100
g101
ssg82
g499
sg75
(lp510
S':'
asbag68
(g89
g70
NtRp511
(dp512
g73
(dp513
sg82
g499
sg75
(lp514
g68
(g69
g70
NtRp515
(dp516
g73
(dp517
g81
I3
ssg82
g511
sg75
(lp518
S''
asbasbasbag68
(g84
g70
NtRp519
(dp520
g73
(dp521
sg82
g475
sg75
(lp522
g68
(g89
g70
NtRp523
(dp524
g73
(dp525
g93
g94
ssg82
g519
sg75
(lp526
g336
asbag68
(g89
g70
NtRp527
(dp528
g73
(dp529
g100
g101
ssg82
g519
sg75
(lp530
S':'
asbag68
(g89
g70
NtRp531
(dp532
g73
(dp533
sg82
g519
sg75
(lp534
g68
(g69
g70
NtRp535
(dp536
g73
(dp537
g81
I3
ssg82
g531
sg75
(lp538
S''
asbasbasbag68
(g84
g70
NtRp539
(dp540
g73
(dp541
sg82
g475
sg75
(lp542
g68
(g89
g70
NtRp543
(dp544
g73
(dp545
g93
g94
ssg82
g539
sg75
(lp546
g357
asbag68
(g89
g70
NtRp547
(dp548
g73
(dp549
g100
g101
ssg82
g539
sg75
(lp550
S':'
asbag68
(g89
g70
NtRp551
(dp552
g73
(dp553
sg82
g539
sg75
(lp554
g68
(g69
g70
NtRp555
(dp556
g73
(dp557
g81
I3
ssg82
g551
sg75
(lp558
S''
asbasbasbag68
(g84
g70
NtRp559
(dp560
g73
(dp561
sg82
g475
sg75
(lp562
g68
(g89
g70
NtRp563
(dp564
g73
(dp565
g93
g94
ssg82
g559
sg75
(lp566
g378
asbag68
(g89
g70
NtRp567
(dp568
g73
(dp569
g100
g101
ssg82
g559
sg75
(lp570
S':'
asbag68
(g89
g70
NtRp571
(dp572
g73
(dp573
sg82
g559
sg75
(lp574
g68
(g69
g70
NtRp575
(dp576
g73
(dp577
g81
I3
ssg82
g571
sg75
(lp578
S''
asbasbasbag68
(g84
g70
NtRp579
(dp580
g73
(dp581
sg82
g475
sg75
(lp582
g68
(g89
g70
NtRp583
(dp584
g73
(dp585
g93
g94
ssg82
g579
sg75
(lp586
g399
asbag68
(g89
g70
NtRp587
(dp588
g73
(dp589
g100
g101
ssg82
g579
sg75
(lp590
S':'
asbag68
(g89
g70
NtRp591
(dp592
g73
(dp593
sg82
g579
sg75
(lp594
g68
(g69
g70
NtRp595
(dp596
g73
(dp597
g81
I3
ssg82
g591
sg75
(lp598
S''
asbasbasbag68
(g84
g70
NtRp599
(dp600
g73
(dp601
sg82
g475
sg75
(lp602
g68
(g89
g70
NtRp603
(dp604
g73
(dp605
g93
g94
ssg82
g599
sg75
(lp606
g420
asbag68
(g89
g70
NtRp607
(dp608
g73
(dp609
g100
g101
ssg82
g599
sg75
(lp610
S':'
asbag68
(g89
g70
NtRp611
(dp612
g73
(dp613
sg82
g599
sg75
(lp614
g68
(g69
g70
NtRp615
(dp616
g73
(dp617
g81
I3
ssg82
g611
sg75
(lp618
S''
asbasbasbag68
(g84
g70
NtRp619
(dp620
g73
(dp621
sg82
g475
sg75
(lp622
g68
(g89
g70
NtRp623
(dp624
g73
(dp625
g93
g94
ssg82
g619
sg75
(lp626
g441
asbag68
(g89
g70
NtRp627
(dp628
g73
(dp629
g100
g101
ssg82
g619
sg75
(lp630
S':'
asbag68
(g89
g70
NtRp631
(dp632
g73
(dp633
sg82
g619
sg75
(lp634
g68
(g69
g70
NtRp635
(dp636
g73
(dp637
g81
I3
ssg82
g631
sg75
(lp638
S''
asbasbasbasbasbasbasbasbasbasbasbag68
(g84
g70
NtRp639
(dp640
g73
(dp641
sg82
g78
sg75
(lp642
g68
(g89
g70
NtRp643
(dp644
g73
(dp645
g93
g94
ssg82
g639
sg75
(lp646
S'env'
p647
asbag68
(g89
g70
NtRp648
(dp649
g73
(dp650
g100
g101
ssg82
g639
sg75
(lp651
S':'
asbag68
(g89
g70
NtRp652
(dp653
g73
(dp654
sg82
g639
sg75
(lp655
g68
(g69
g70
NtRp656
(dp657
g73
(dp658
g81
I5
ssg82
g652
sg75
(lp659
g68
(g77
g70
NtRp660
(dp661
g73
(dp662
g81
I4
ssg82
Nsg75
(lp663
g68
(g84
g70
NtRp664
(dp665
g73
(dp666
sg82
g660
sg75
(lp667
g68
(g89
g70
NtRp668
(dp669
g73
(dp670
g93
g94
ssg82
g664
sg75
(lp671
S'app_folders'
p672
asbag68
(g89
g70
NtRp673
(dp674
g73
(dp675
g100
g101
ssg82
g664
sg75
(lp676
S':'
asbag68
(g89
g70
NtRp677
(dp678
g73
(dp679
sg82
g664
sg75
(lp680
g68
(g69
g70
NtRp681
(dp682
g73
(dp683
g81
I4
ssg82
g677
sg75
(lp684
S"set(['E:\\\\Programming\\\\Python\\\\web2py\\\\applications\\\\vote_up\\\\', 'E:\\\\Programming\\\\Python\\\\web2py\\\\applications\\\\welcome\\\\', 'E:\\\\Programming\\\\Python\\\\web2py\\\\applications\\\\admin\\\\'])"
p685
asbasbasbag68
(g84
g70
NtRp686
(dp687
g73
(dp688
sg82
g660
sg75
(lp689
g68
(g89
g70
NtRp690
(dp691
g73
(dp692
g93
g94
ssg82
g686
sg75
(lp693
S'applications_parent'
p694
asbag68
(g89
g70
NtRp695
(dp696
g73
(dp697
g100
g101
ssg82
g686
sg75
(lp698
S':'
asbag68
(g89
g70
NtRp699
(dp700
g73
(dp701
sg82
g686
sg75
(lp702
g68
(g69
g70
NtRp703
(dp704
g73
(dp705
g81
I4
ssg82
g699
sg75
(lp706
S'E:\\Programming\\Python\\web2py'
p707
asbasbasbag68
(g84
g70
NtRp708
(dp709
g73
(dp710
sg82
g660
sg75
(lp711
g68
(g89
g70
NtRp712
(dp713
g73
(dp714
g93
g94
ssg82
g708
sg75
(lp715
S'cmd_args'
p716
asbag68
(g89
g70
NtRp717
(dp718
g73
(dp719
g100
g101
ssg82
g708
sg75
(lp720
S':'
asbag68
(g89
g70
NtRp721
(dp722
g73
(dp723
sg82
g708
sg75
(lp724
g68
(g69
g70
NtRp725
(dp726
g73
(dp727
g81
I4
ssg82
g721
sg75
(lp728
g68
(g77
g70
NtRp729
(dp730
g73
(dp731
g81
I3
ssg82
Nsg75
(lp732
sbasbasbasbag68
(g84
g70
NtRp733
(dp734
g73
(dp735
sg82
g660
sg75
(lp736
g68
(g89
g70
NtRp737
(dp738
g73
(dp739
g93
g94
ssg82
g733
sg75
(lp740
S'cmd_options'
p741
asbag68
(g89
g70
NtRp742
(dp743
g73
(dp744
g100
g101
ssg82
g733
sg75
(lp745
S':'
asbag68
(g89
g70
NtRp746
(dp747
g73
(dp748
sg82
g733
sg75
(lp749
g68
(g69
g70
NtRp750
(dp751
g73
(dp752
g81
I4
ssg82
g746
sg75
(lp753
S"<Values at 0x2972710: {'verbose': False, 'ip': '127.0.0.1', 'shutdown_timeout': 5, 'taskbar': False, 'nocron': False, 'pid_filename': 'httpserver.pid', 'maxthreads': None, 'softcron': False, 'server_name': '1901200822091P', 'bpython': False, 'nogui': False, 'port': 8000, 'extcron': False, 'debuglevel': 30, 'test': None, 'folder': 'E:\\\\Programming\\\\Python\\\\web2py', 'config': '', 'import_models': False, 'winservice': '', 'shell': None, 'run': '', 'log_filename': 'httpserver.log', 'args': [''], 'socket_timeout': 1, 'ssl_ca_certificate': None, 'scheduler': None, 'profiler_filename': None, 'ssl_private_key': '', 'password': '<ask>', 'request_queue_size': 5, 'ssl_certificate': '', 'cronjob': False, 'numthreads': None, 'quiet': False, 'interfaces': None, 'minthreads': None, 'timeout': 10, 'plain': False, 'nobanner': False}>"
p754
asbasbasbag68
(g84
g70
NtRp755
(dp756
g73
(dp757
sg82
g660
sg75
(lp758
g68
(g89
g70
NtRp759
(dp760
g73
(dp761
g93
g94
ssg82
g755
sg75
(lp762
S'db_sessions'
p763
asbag68
(g89
g70
NtRp764
(dp765
g73
(dp766
g100
g101
ssg82
g755
sg75
(lp767
S':'
asbag68
(g89
g70
NtRp768
(dp769
g73
(dp770
sg82
g755
sg75
(lp771
g68
(g69
g70
NtRp772
(dp773
g73
(dp774
g81
I4
ssg82
g768
sg75
(lp775
S'set([])'
p776
asbasbasbag68
(g84
g70
NtRp777
(dp778
g73
(dp779
sg82
g660
sg75
(lp780
g68
(g89
g70
NtRp781
(dp782
g73
(dp783
g93
g94
ssg82
g777
sg75
(lp784
S'debugging'
p785
asbag68
(g89
g70
NtRp786
(dp787
g73
(dp788
g100
g101
ssg82
g777
sg75
(lp789
S':'
asbag68
(g89
g70
NtRp790
(dp791
g73
(dp792
sg82
g777
sg75
(lp793
g68
(g69
g70
NtRp794
(dp795
g73
(dp796
g81
I4
ssg82
g790
sg75
(lp797
g111
asbasbasbag68
(g84
g70
NtRp798
(dp799
g73
(dp800
sg82
g660
sg75
(lp801
g68
(g89
g70
NtRp802
(dp803
g73
(dp804
g93
g94
ssg82
g798
sg75
(lp805
S'gluon_parent'
p806
asbag68
(g89
g70
NtRp807
(dp808
g73
(dp809
g100
g101
ssg82
g798
sg75
(lp810
S':'
asbag68
(g89
g70
NtRp811
(dp812
g73
(dp813
sg82
g798
sg75
(lp814
g68
(g69
g70
NtRp815
(dp816
g73
(dp817
g81
I4
ssg82
g811
sg75
(lp818
S'E:\\Programming\\Python\\web2py'
p819
asbasbasbag68
(g84
g70
NtRp820
(dp821
g73
(dp822
sg82
g660
sg75
(lp823
g68
(g89
g70
NtRp824
(dp825
g73
(dp826
g93
g94
ssg82
g820
sg75
(lp827
S'http_accept'
p828
asbag68
(g89
g70
NtRp829
(dp830
g73
(dp831
g100
g101
ssg82
g820
sg75
(lp832
S':'
asbag68
(g89
g70
NtRp833
(dp834
g73
(dp835
sg82
g820
sg75
(lp836
g68
(g69
g70
NtRp837
(dp838
g73
(dp839
g81
I4
ssg82
g833
sg75
(lp840
S'text/html,application/xhtml+xml,application/xml;q=0.9,*/*;q=0.8'
p841
asbasbasbag68
(g84
g70
NtRp842
(dp843
g73
(dp844
sg82
g660
sg75
(lp845
g68
(g89
g70
NtRp846
(dp847
g73
(dp848
g93
g94
ssg82
g842
sg75
(lp849
S'http_accept_charset'
p850
asbag68
(g89
g70
NtRp851
(dp852
g73
(dp853
g100
g101
ssg82
g842
sg75
(lp854
S':'
asbag68
(g89
g70
NtRp855
(dp856
g73
(dp857
sg82
g842
sg75
(lp858
g68
(g69
g70
NtRp859
(dp860
g73
(dp861
g81
I4
ssg82
g855
sg75
(lp862
S'ISO-8859-1,utf-8;q=0.7,*;q=0.3'
p863
asbasbasbag68
(g84
g70
NtRp864
(dp865
g73
(dp866
sg82
g660
sg75
(lp867
g68
(g89
g70
NtRp868
(dp869
g73
(dp870
g93
g94
ssg82
g864
sg75
(lp871
S'http_accept_encoding'
p872
asbag68
(g89
g70
NtRp873
(dp874
g73
(dp875
g100
g101
ssg82
g864
sg75
(lp876
S':'
asbag68
(g89
g70
NtRp877
(dp878
g73
(dp879
sg82
g864
sg75
(lp880
g68
(g69
g70
NtRp881
(dp882
g73
(dp883
g81
I4
ssg82
g877
sg75
(lp884
S'gzip,deflate,sdch'
p885
asbasbasbag68
(g84
g70
NtRp886
(dp887
g73
(dp888
sg82
g660
sg75
(lp889
g68
(g89
g70
NtRp890
(dp891
g73
(dp892
g93
g94
ssg82
g886
sg75
(lp893
S'http_accept_language'
p894
asbag68
(g89
g70
NtRp895
(dp896
g73
(dp897
g100
g101
ssg82
g886
sg75
(lp898
S':'
asbag68
(g89
g70
NtRp899
(dp900
g73
(dp901
sg82
g886
sg75
(lp902
g68
(g69
g70
NtRp903
(dp904
g73
(dp905
g81
I4
ssg82
g899
sg75
(lp906
S'en-US,en;q=0.8'
p907
asbasbasbag68
(g84
g70
NtRp908
(dp909
g73
(dp910
sg82
g660
sg75
(lp911
g68
(g89
g70
NtRp912
(dp913
g73
(dp914
g93
g94
ssg82
g908
sg75
(lp915
S'http_cache_control'
p916
asbag68
(g89
g70
NtRp917
(dp918
g73
(dp919
g100
g101
ssg82
g908
sg75
(lp920
S':'
asbag68
(g89
g70
NtRp921
(dp922
g73
(dp923
sg82
g908
sg75
(lp924
g68
(g69
g70
NtRp925
(dp926
g73
(dp927
g81
I4
ssg82
g921
sg75
(lp928
S'max-age=0'
p929
asbasbasbag68
(g84
g70
NtRp930
(dp931
g73
(dp932
sg82
g660
sg75
(lp933
g68
(g89
g70
NtRp934
(dp935
g73
(dp936
g93
g94
ssg82
g930
sg75
(lp937
S'http_connection'
p938
asbag68
(g89
g70
NtRp939
(dp940
g73
(dp941
g100
g101
ssg82
g930
sg75
(lp942
S':'
asbag68
(g89
g70
NtRp943
(dp944
g73
(dp945
sg82
g930
sg75
(lp946
g68
(g69
g70
NtRp947
(dp948
g73
(dp949
g81
I4
ssg82
g943
sg75
(lp950
S'keep-alive'
p951
asbasbasbag68
(g84
g70
NtRp952
(dp953
g73
(dp954
sg82
g660
sg75
(lp955
g68
(g89
g70
NtRp956
(dp957
g73
(dp958
g93
g94
ssg82
g952
sg75
(lp959
S'http_cookie'
p960
asbag68
(g89
g70
NtRp961
(dp962
g73
(dp963
g100
g101
ssg82
g952
sg75
(lp964
S':'
asbag68
(g89
g70
NtRp965
(dp966
g73
(dp967
sg82
g952
sg75
(lp968
g68
(g69
g70
NtRp969
(dp970
g73
(dp971
g81
I4
ssg82
g965
sg75
(lp972
S'session_id_vote_up=127.0.0.1-e81ed9c0-d4be-422d-b060-14285d3027cf; session_id_admin=127.0.0.1-cade4469-1936-4cf4-a500-6b25b32efdc9'
p973
asbasbasbag68
(g84
g70
NtRp974
(dp975
g73
(dp976
sg82
g660
sg75
(lp977
g68
(g89
g70
NtRp978
(dp979
g73
(dp980
g93
g94
ssg82
g974
sg75
(lp981
S'http_host'
p982
asbag68
(g89
g70
NtRp983
(dp984
g73
(dp985
g100
g101
ssg82
g974
sg75
(lp986
S':'
asbag68
(g89
g70
NtRp987
(dp988
g73
(dp989
sg82
g974
sg75
(lp990
g68
(g69
g70
NtRp991
(dp992
g73
(dp993
g81
I4
ssg82
g987
sg75
(lp994
S'127.0.0.1:8000'
p995
asbasbasbag68
(g84
g70
NtRp996
(dp997
g73
(dp998
sg82
g660
sg75
(lp999
g68
(g89
g70
NtRp1000
(dp1001
g73
(dp1002
g93
g94
ssg82
g996
sg75
(lp1003
S'http_referer'
p1004
asbag68
(g89
g70
NtRp1005
(dp1006
g73
(dp1007
g100
g101
ssg82
g996
sg75
(lp1008
S':'
asbag68
(g89
g70
NtRp1009
(dp1010
g73
(dp1011
sg82
g996
sg75
(lp1012
g68
(g69
g70
NtRp1013
(dp1014
g73
(dp1015
g81
I4
ssg82
g1009
sg75
(lp1016
S'http://127.0.0.1:8000/vote_up/'
p1017
asbasbasbag68
(g84
g70
NtRp1018
(dp1019
g73
(dp1020
sg82
g660
sg75
(lp1021
g68
(g89
g70
NtRp1022
(dp1023
g73
(dp1024
g93
g94
ssg82
g1018
sg75
(lp1025
S'http_user_agent'
p1026
asbag68
(g89
g70
NtRp1027
(dp1028
g73
(dp1029
g100
g101
ssg82
g1018
sg75
(lp1030
S':'
asbag68
(g89
g70
NtRp1031
(dp1032
g73
(dp1033
sg82
g1018
sg75
(lp1034
g68
(g69
g70
NtRp1035
(dp1036
g73
(dp1037
g81
I4
ssg82
g1031
sg75
(lp1038
S'Mozilla/5.0 (Windows NT 6.1) AppleWebKit/535.1 (KHTML, like Gecko) RockMelt/0.9.72.698 Chrome/14.0.835.202 Safari/535.1'
p1039
asbasbasbag68
(g84
g70
NtRp1040
(dp1041
g73
(dp1042
sg82
g660
sg75
(lp1043
g68
(g89
g70
NtRp1044
(dp1045
g73
(dp1046
g93
g94
ssg82
g1040
sg75
(lp1047
S'is_jython'
p1048
asbag68
(g89
g70
NtRp1049
(dp1050
g73
(dp1051
g100
g101
ssg82
g1040
sg75
(lp1052
S':'
asbag68
(g89
g70
NtRp1053
(dp1054
g73
(dp1055
sg82
g1040
sg75
(lp1056
g68
(g69
g70
NtRp1057
(dp1058
g73
(dp1059
g81
I4
ssg82
g1053
sg75
(lp1060
g111
asbasbasbag68
(g84
g70
NtRp1061
(dp1062
g73
(dp1063
sg82
g660
sg75
(lp1064
g68
(g89
g70
NtRp1065
(dp1066
g73
(dp1067
g93
g94
ssg82
g1061
sg75
(lp1068
S'is_pypy'
p1069
asbag68
(g89
g70
NtRp1070
(dp1071
g73
(dp1072
g100
g101
ssg82
g1061
sg75
(lp1073
S':'
asbag68
(g89
g70
NtRp1074
(dp1075
g73
(dp1076
sg82
g1061
sg75
(lp1077
g68
(g69
g70
NtRp1078
(dp1079
g73
(dp1080
g81
I4
ssg82
g1074
sg75
(lp1081
g111
asbasbasbag68
(g84
g70
NtRp1082
(dp1083
g73
(dp1084
sg82
g660
sg75
(lp1085
g68
(g89
g70
NtRp1086
(dp1087
g73
(dp1088
g93
g94
ssg82
g1082
sg75
(lp1089
S'path_info'
p1090
asbag68
(g89
g70
NtRp1091
(dp1092
g73
(dp1093
g100
g101
ssg82
g1082
sg75
(lp1094
S':'
asbag68
(g89
g70
NtRp1095
(dp1096
g73
(dp1097
sg82
g1082
sg75
(lp1098
g68
(g69
g70
NtRp1099
(dp1100
g73
(dp1101
g81
I4
ssg82
g1095
sg75
(lp1102
S'/vote_up/default/get_post/7'
p1103
asbasbasbag68
(g84
g70
NtRp1104
(dp1105
g73
(dp1106
sg82
g660
sg75
(lp1107
g68
(g89
g70
NtRp1108
(dp1109
g73
(dp1110
g93
g94
ssg82
g1104
sg75
(lp1111
S'query_string'
p1112
asbag68
(g89
g70
NtRp1113
(dp1114
g73
(dp1115
g100
g101
ssg82
g1104
sg75
(lp1116
S':'
asbag68
(g89
g70
NtRp1117
(dp1118
g73
(dp1119
sg82
g1104
sg75
(lp1120
g68
(g69
g70
NtRp1121
(dp1122
g73
(dp1123
g81
I4
ssg82
g1117
sg75
(lp1124
S''
asbasbasbag68
(g84
g70
NtRp1125
(dp1126
g73
(dp1127
sg82
g660
sg75
(lp1128
g68
(g89
g70
NtRp1129
(dp1130
g73
(dp1131
g93
g94
ssg82
g1125
sg75
(lp1132
S'remote_addr'
p1133
asbag68
(g89
g70
NtRp1134
(dp1135
g73
(dp1136
g100
g101
ssg82
g1125
sg75
(lp1137
S':'
asbag68
(g89
g70
NtRp1138
(dp1139
g73
(dp1140
sg82
g1125
sg75
(lp1141
g68
(g69
g70
NtRp1142
(dp1143
g73
(dp1144
g81
I4
ssg82
g1138
sg75
(lp1145
g213
asbasbasbag68
(g84
g70
NtRp1146
(dp1147
g73
(dp1148
sg82
g660
sg75
(lp1149
g68
(g89
g70
NtRp1150
(dp1151
g73
(dp1152
g93
g94
ssg82
g1146
sg75
(lp1153
S'remote_port'
p1154
asbag68
(g89
g70
NtRp1155
(dp1156
g73
(dp1157
g100
g101
ssg82
g1146
sg75
(lp1158
S':'
asbag68
(g89
g70
NtRp1159
(dp1160
g73
(dp1161
sg82
g1146
sg75
(lp1162
g68
(g69
g70
NtRp1163
(dp1164
g73
(dp1165
g81
I4
ssg82
g1159
sg75
(lp1166
S'59138'
p1167
asbasbasbag68
(g84
g70
NtRp1168
(dp1169
g73
(dp1170
sg82
g660
sg75
(lp1171
g68
(g89
g70
NtRp1172
(dp1173
g73
(dp1174
g93
g94
ssg82
g1168
sg75
(lp1175
S'request_method'
p1176
asbag68
(g89
g70
NtRp1177
(dp1178
g73
(dp1179
g100
g101
ssg82
g1168
sg75
(lp1180
S':'
asbag68
(g89
g70
NtRp1181
(dp1182
g73
(dp1183
sg82
g1168
sg75
(lp1184
g68
(g69
g70
NtRp1185
(dp1186
g73
(dp1187
g81
I4
ssg82
g1181
sg75
(lp1188
S'GET'
p1189
asbasbasbag68
(g84
g70
NtRp1190
(dp1191
g73
(dp1192
sg82
g660
sg75
(lp1193
g68
(g89
g70
NtRp1194
(dp1195
g73
(dp1196
g93
g94
ssg82
g1190
sg75
(lp1197
S'script_name'
p1198
asbag68
(g89
g70
NtRp1199
(dp1200
g73
(dp1201
g100
g101
ssg82
g1190
sg75
(lp1202
S':'
asbag68
(g89
g70
NtRp1203
(dp1204
g73
(dp1205
sg82
g1190
sg75
(lp1206
g68
(g69
g70
NtRp1207
(dp1208
g73
(dp1209
g81
I4
ssg82
g1203
sg75
(lp1210
S''
asbasbasbag68
(g84
g70
NtRp1211
(dp1212
g73
(dp1213
sg82
g660
sg75
(lp1214
g68
(g89
g70
NtRp1215
(dp1216
g73
(dp1217
g93
g94
ssg82
g1211
sg75
(lp1218
S'server_name'
p1219
asbag68
(g89
g70
NtRp1220
(dp1221
g73
(dp1222
g100
g101
ssg82
g1211
sg75
(lp1223
S':'
asbag68
(g89
g70
NtRp1224
(dp1225
g73
(dp1226
sg82
g1211
sg75
(lp1227
g68
(g69
g70
NtRp1228
(dp1229
g73
(dp1230
g81
I4
ssg82
g1224
sg75
(lp1231
S'1901200822091P'
p1232
asbasbasbag68
(g84
g70
NtRp1233
(dp1234
g73
(dp1235
sg82
g660
sg75
(lp1236
g68
(g89
g70
NtRp1237
(dp1238
g73
(dp1239
g93
g94
ssg82
g1233
sg75
(lp1240
S'server_port'
p1241
asbag68
(g89
g70
NtRp1242
(dp1243
g73
(dp1244
g100
g101
ssg82
g1233
sg75
(lp1245
S':'
asbag68
(g89
g70
NtRp1246
(dp1247
g73
(dp1248
sg82
g1233
sg75
(lp1249
g68
(g69
g70
NtRp1250
(dp1251
g73
(dp1252
g81
I4
ssg82
g1246
sg75
(lp1253
S'8000'
p1254
asbasbasbag68
(g84
g70
NtRp1255
(dp1256
g73
(dp1257
sg82
g660
sg75
(lp1258
g68
(g89
g70
NtRp1259
(dp1260
g73
(dp1261
g93
g94
ssg82
g1255
sg75
(lp1262
S'server_protocol'
p1263
asbag68
(g89
g70
NtRp1264
(dp1265
g73
(dp1266
g100
g101
ssg82
g1255
sg75
(lp1267
S':'
asbag68
(g89
g70
NtRp1268
(dp1269
g73
(dp1270
sg82
g1255
sg75
(lp1271
g68
(g69
g70
NtRp1272
(dp1273
g73
(dp1274
g81
I4
ssg82
g1268
sg75
(lp1275
S'HTTP/1.1'
p1276
asbasbasbag68
(g84
g70
NtRp1277
(dp1278
g73
(dp1279
sg82
g660
sg75
(lp1280
g68
(g89
g70
NtRp1281
(dp1282
g73
(dp1283
g93
g94
ssg82
g1277
sg75
(lp1284
S'server_software'
p1285
asbag68
(g89
g70
NtRp1286
(dp1287
g73
(dp1288
g100
g101
ssg82
g1277
sg75
(lp1289
S':'
asbag68
(g89
g70
NtRp1290
(dp1291
g73
(dp1292
sg82
g1277
sg75
(lp1293
g68
(g69
g70
NtRp1294
(dp1295
g73
(dp1296
g81
I4
ssg82
g1290
sg75
(lp1297
S'Rocket 1.2.4'
p1298
asbasbasbag68
(g84
g70
NtRp1299
(dp1300
g73
(dp1301
sg82
g660
sg75
(lp1302
g68
(g89
g70
NtRp1303
(dp1304
g73
(dp1305
g93
g94
ssg82
g1299
sg75
(lp1306
S'web2py_crontype'
p1307
asbag68
(g89
g70
NtRp1308
(dp1309
g73
(dp1310
g100
g101
ssg82
g1299
sg75
(lp1311
S':'
asbag68
(g89
g70
NtRp1312
(dp1313
g73
(dp1314
sg82
g1299
sg75
(lp1315
g68
(g69
g70
NtRp1316
(dp1317
g73
(dp1318
g81
I4
ssg82
g1312
sg75
(lp1319
S'hard'
p1320
asbasbasbag68
(g84
g70
NtRp1321
(dp1322
g73
(dp1323
sg82
g660
sg75
(lp1324
g68
(g89
g70
NtRp1325
(dp1326
g73
(dp1327
g93
g94
ssg82
g1321
sg75
(lp1328
S'web2py_path'
p1329
asbag68
(g89
g70
NtRp1330
(dp1331
g73
(dp1332
g100
g101
ssg82
g1321
sg75
(lp1333
S':'
asbag68
(g89
g70
NtRp1334
(dp1335
g73
(dp1336
sg82
g1321
sg75
(lp1337
g68
(g69
g70
NtRp1338
(dp1339
g73
(dp1340
g81
I4
ssg82
g1334
sg75
(lp1341
g707
asbasbasbag68
(g84
g70
NtRp1342
(dp1343
g73
(dp1344
sg82
g660
sg75
(lp1345
g68
(g89
g70
NtRp1346
(dp1347
g73
(dp1348
g93
g94
ssg82
g1342
sg75
(lp1349
S'web2py_version'
p1350
asbag68
(g89
g70
NtRp1351
(dp1352
g73
(dp1353
g100
g101
ssg82
g1342
sg75
(lp1354
S':'
asbag68
(g89
g70
NtRp1355
(dp1356
g73
(dp1357
sg82
g1342
sg75
(lp1358
g68
(g69
g70
NtRp1359
(dp1360
g73
(dp1361
g81
I4
ssg82
g1355
sg75
(lp1362
g68
(g77
g70
NtRp1363
(dp1364
g73
(dp1365
g81
I3
ssg82
Nsg75
(lp1366
g68
(g84
g70
NtRp1367
(dp1368
g73
(dp1369
sg82
g1363
sg75
(lp1370
g68
(g89
g70
NtRp1371
(dp1372
g73
(dp1373
sg82
g1367
sg75
(lp1374
g68
(g69
g70
NtRp1375
(dp1376
g73
(dp1377
g81
I3
ssg82
g1371
sg75
(lp1378
S'1'
asbasbasbag68
(g84
g70
NtRp1379
(dp1380
g73
(dp1381
sg82
g1363
sg75
(lp1382
g68
(g89
g70
NtRp1383
(dp1384
g73
(dp1385
sg82
g1379
sg75
(lp1386
g68
(g69
g70
NtRp1387
(dp1388
g73
(dp1389
g81
I3
ssg82
g1383
sg75
(lp1390
S'99'
p1391
asbasbasbag68
(g84
g70
NtRp1392
(dp1393
g73
(dp1394
sg82
g1363
sg75
(lp1395
g68
(g89
g70
NtRp1396
(dp1397
g73
(dp1398
sg82
g1392
sg75
(lp1399
g68
(g69
g70
NtRp1400
(dp1401
g73
(dp1402
g81
I3
ssg82
g1396
sg75
(lp1403
S'4'
asbasbasbag68
(g84
g70
NtRp1404
(dp1405
g73
(dp1406
sg82
g1363
sg75
(lp1407
g68
(g89
g70
NtRp1408
(dp1409
g73
(dp1410
sg82
g1404
sg75
(lp1411
g68
(g69
g70
NtRp1412
(dp1413
g73
(dp1414
g81
I3
ssg82
g1408
sg75
(lp1415
S'datetime.datetime(2011, 12, 14, 14, 46, 14)'
p1416
asbasbasbag68
(g84
g70
NtRp1417
(dp1418
g73
(dp1419
sg82
g1363
sg75
(lp1420
g68
(g89
g70
NtRp1421
(dp1422
g73
(dp1423
sg82
g1417
sg75
(lp1424
g68
(g69
g70
NtRp1425
(dp1426
g73
(dp1427
g81
I3
ssg82
g1421
sg75
(lp1428
S'stable'
p1429
asbasbasbasbasbasbasbag68
(g84
g70
NtRp1430
(dp1431
g73
(dp1432
sg82
g660
sg75
(lp1433
g68
(g89
g70
NtRp1434
(dp1435
g73
(dp1436
g93
g94
ssg82
g1430
sg75
(lp1437
S'wsgi_errors'
p1438
asbag68
(g89
g70
NtRp1439
(dp1440
g73
(dp1441
g100
g101
ssg82
g1430
sg75
(lp1442
S':'
asbag68
(g89
g70
NtRp1443
(dp1444
g73
(dp1445
sg82
g1430
sg75
(lp1446
g68
(g69
g70
NtRp1447
(dp1448
g73
(dp1449
g81
I4
ssg82
g1443
sg75
(lp1450
S"<open file '<stderr>', mode 'w' at 0x012650D0>"
p1451
asbasbasbag68
(g84
g70
NtRp1452
(dp1453
g73
(dp1454
sg82
g660
sg75
(lp1455
g68
(g89
g70
NtRp1456
(dp1457
g73
(dp1458
g93
g94
ssg82
g1452
sg75
(lp1459
S'wsgi_file_wrapper'
p1460
asbag68
(g89
g70
NtRp1461
(dp1462
g73
(dp1463
g100
g101
ssg82
g1452
sg75
(lp1464
S':'
asbag68
(g89
g70
NtRp1465
(dp1466
g73
(dp1467
sg82
g1452
sg75
(lp1468
g68
(g69
g70
NtRp1469
(dp1470
g73
(dp1471
g81
I4
ssg82
g1465
sg75
(lp1472
S'<class wsgiref.util.FileWrapper at 0x028B4880>'
p1473
asbasbasbag68
(g84
g70
NtRp1474
(dp1475
g73
(dp1476
sg82
g660
sg75
(lp1477
g68
(g89
g70
NtRp1478
(dp1479
g73
(dp1480
g93
g94
ssg82
g1474
sg75
(lp1481
S'wsgi_input'
p1482
asbag68
(g89
g70
NtRp1483
(dp1484
g73
(dp1485
g100
g101
ssg82
g1474
sg75
(lp1486
S':'
asbag68
(g89
g70
NtRp1487
(dp1488
g73
(dp1489
sg82
g1474
sg75
(lp1490
g68
(g69
g70
NtRp1491
(dp1492
g73
(dp1493
g81
I4
ssg82
g1487
sg75
(lp1494
S'<socket._fileobject object at 0x069E1EB0>'
p1495
asbasbasbag68
(g84
g70
NtRp1496
(dp1497
g73
(dp1498
sg82
g660
sg75
(lp1499
g68
(g89
g70
NtRp1500
(dp1501
g73
(dp1502
g93
g94
ssg82
g1496
sg75
(lp1503
S'wsgi_multiprocess'
p1504
asbag68
(g89
g70
NtRp1505
(dp1506
g73
(dp1507
g100
g101
ssg82
g1496
sg75
(lp1508
S':'
asbag68
(g89
g70
NtRp1509
(dp1510
g73
(dp1511
sg82
g1496
sg75
(lp1512
g68
(g69
g70
NtRp1513
(dp1514
g73
(dp1515
g81
I4
ssg82
g1509
sg75
(lp1516
g111
asbasbasbag68
(g84
g70
NtRp1517
(dp1518
g73
(dp1519
sg82
g660
sg75
(lp1520
g68
(g89
g70
NtRp1521
(dp1522
g73
(dp1523
g93
g94
ssg82
g1517
sg75
(lp1524
S'wsgi_multithread'
p1525
asbag68
(g89
g70
NtRp1526
(dp1527
g73
(dp1528
g100
g101
ssg82
g1517
sg75
(lp1529
S':'
asbag68
(g89
g70
NtRp1530
(dp1531
g73
(dp1532
sg82
g1517
sg75
(lp1533
g68
(g69
g70
NtRp1534
(dp1535
g73
(dp1536
g81
I4
ssg82
g1530
sg75
(lp1537
S'True'
p1538
asbasbasbag68
(g84
g70
NtRp1539
(dp1540
g73
(dp1541
sg82
g660
sg75
(lp1542
g68
(g89
g70
NtRp1543
(dp1544
g73
(dp1545
g93
g94
ssg82
g1539
sg75
(lp1546
S'wsgi_run_once'
p1547
asbag68
(g89
g70
NtRp1548
(dp1549
g73
(dp1550
g100
g101
ssg82
g1539
sg75
(lp1551
S':'
asbag68
(g89
g70
NtRp1552
(dp1553
g73
(dp1554
sg82
g1539
sg75
(lp1555
g68
(g69
g70
NtRp1556
(dp1557
g73
(dp1558
g81
I4
ssg82
g1552
sg75
(lp1559
g111
asbasbasbag68
(g84
g70
NtRp1560
(dp1561
g73
(dp1562
sg82
g660
sg75
(lp1563
g68
(g89
g70
NtRp1564
(dp1565
g73
(dp1566
g93
g94
ssg82
g1560
sg75
(lp1567
S'wsgi_url_scheme'
p1568
asbag68
(g89
g70
NtRp1569
(dp1570
g73
(dp1571
g100
g101
ssg82
g1560
sg75
(lp1572
S':'
asbag68
(g89
g70
NtRp1573
(dp1574
g73
(dp1575
sg82
g1560
sg75
(lp1576
g68
(g69
g70
NtRp1577
(dp1578
g73
(dp1579
g81
I4
ssg82
g1573
sg75
(lp1580
S'http'
p1581
asbasbasbag68
(g84
g70
NtRp1582
(dp1583
g73
(dp1584
sg82
g660
sg75
(lp1585
g68
(g89
g70
NtRp1586
(dp1587
g73
(dp1588
g93
g94
ssg82
g1582
sg75
(lp1589
S'wsgi_version'
p1590
asbag68
(g89
g70
NtRp1591
(dp1592
g73
(dp1593
g100
g101
ssg82
g1582
sg75
(lp1594
S':'
asbag68
(g89
g70
NtRp1595
(dp1596
g73
(dp1597
sg82
g1582
sg75
(lp1598
g68
(g69
g70
NtRp1599
(dp1600
g73
(dp1601
g81
I4
ssg82
g1595
sg75
(lp1602
g68
(g77
g70
NtRp1603
(dp1604
g73
(dp1605
g81
I3
ssg82
Nsg75
(lp1606
g68
(g84
g70
NtRp1607
(dp1608
g73
(dp1609
sg82
g1603
sg75
(lp1610
g68
(g89
g70
NtRp1611
(dp1612
g73
(dp1613
sg82
g1607
sg75
(lp1614
g68
(g69
g70
NtRp1615
(dp1616
g73
(dp1617
g81
I3
ssg82
g1611
sg75
(lp1618
S'1'
asbasbasbag68
(g84
g70
NtRp1619
(dp1620
g73
(dp1621
sg82
g1603
sg75
(lp1622
g68
(g89
g70
NtRp1623
(dp1624
g73
(dp1625
sg82
g1619
sg75
(lp1626
g68
(g69
g70
NtRp1627
(dp1628
g73
(dp1629
g81
I3
ssg82
g1623
sg75
(lp1630
S'0'
asbasbasbasbasbasbasbasbasbasbasbag68
(g84
g70
NtRp1631
(dp1632
g73
(dp1633
sg82
g78
sg75
(lp1634
g68
(g89
g70
NtRp1635
(dp1636
g73
(dp1637
g93
g94
ssg82
g1631
sg75
(lp1638
S'extension'
p1639
asbag68
(g89
g70
NtRp1640
(dp1641
g73
(dp1642
g100
g101
ssg82
g1631
sg75
(lp1643
S':'
asbag68
(g89
g70
NtRp1644
(dp1645
g73
(dp1646
sg82
g1631
sg75
(lp1647
g68
(g69
g70
NtRp1648
(dp1649
g73
(dp1650
g81
I5
ssg82
g1644
sg75
(lp1651
S'html'
p1652
asbasbasbag68
(g84
g70
NtRp1653
(dp1654
g73
(dp1655
sg82
g78
sg75
(lp1656
g68
(g89
g70
NtRp1657
(dp1658
g73
(dp1659
g93
g94
ssg82
g1653
sg75
(lp1660
S'folder'
p1661
asbag68
(g89
g70
NtRp1662
(dp1663
g73
(dp1664
g100
g101
ssg82
g1653
sg75
(lp1665
S':'
asbag68
(g89
g70
NtRp1666
(dp1667
g73
(dp1668
sg82
g1653
sg75
(lp1669
g68
(g69
g70
NtRp1670
(dp1671
g73
(dp1672
g81
I5
ssg82
g1666
sg75
(lp1673
S'E:\\Programming\\Python\\web2py\\applications\\vote_up\\'
p1674
asbasbasbag68
(g84
g70
NtRp1675
(dp1676
g73
(dp1677
sg82
g78
sg75
(lp1678
g68
(g89
g70
NtRp1679
(dp1680
g73
(dp1681
g93
g94
ssg82
g1675
sg75
(lp1682
S'function'
p1683
asbag68
(g89
g70
NtRp1684
(dp1685
g73
(dp1686
g100
g101
ssg82
g1675
sg75
(lp1687
S':'
asbag68
(g89
g70
NtRp1688
(dp1689
g73
(dp1690
sg82
g1675
sg75
(lp1691
g68
(g69
g70
NtRp1692
(dp1693
g73
(dp1694
g81
I5
ssg82
g1688
sg75
(lp1695
S'get_post'
p1696
asbasbasbag68
(g84
g70
NtRp1697
(dp1698
g73
(dp1699
sg82
g78
sg75
(lp1700
g68
(g89
g70
NtRp1701
(dp1702
g73
(dp1703
g93
g94
ssg82
g1697
sg75
(lp1704
S'get_vars'
p1705
asbag68
(g89
g70
NtRp1706
(dp1707
g73
(dp1708
g100
g101
ssg82
g1697
sg75
(lp1709
S':'
asbag68
(g89
g70
NtRp1710
(dp1711
g73
(dp1712
sg82
g1697
sg75
(lp1713
g68
(g69
g70
NtRp1714
(dp1715
g73
(dp1716
g81
I5
ssg82
g1710
sg75
(lp1717
g68
(g77
g70
NtRp1718
(dp1719
g73
(dp1720
g81
I4
ssg82
Nsg75
(lp1721
sbasbasbasbag68
(g84
g70
NtRp1722
(dp1723
g73
(dp1724
sg82
g78
sg75
(lp1725
g68
(g89
g70
NtRp1726
(dp1727
g73
(dp1728
g93
g94
ssg82
g1722
sg75
(lp1729
S'global_settings'
p1730
asbag68
(g89
g70
NtRp1731
(dp1732
g73
(dp1733
g100
g101
ssg82
g1722
sg75
(lp1734
S':'
asbag68
(g89
g70
NtRp1735
(dp1736
g73
(dp1737
sg82
g1722
sg75
(lp1738
g68
(g69
g70
NtRp1739
(dp1740
g73
(dp1741
g81
I5
ssg82
g1735
sg75
(lp1742
g68
(g77
g70
NtRp1743
(dp1744
g73
(dp1745
g81
I4
ssg82
Nsg75
(lp1746
g68
(g84
g70
NtRp1747
(dp1748
g73
(dp1749
sg82
g1743
sg75
(lp1750
g68
(g89
g70
NtRp1751
(dp1752
g73
(dp1753
g93
g94
ssg82
g1747
sg75
(lp1754
g672
asbag68
(g89
g70
NtRp1755
(dp1756
g73
(dp1757
g100
g101
ssg82
g1747
sg75
(lp1758
S':'
asbag68
(g89
g70
NtRp1759
(dp1760
g73
(dp1761
sg82
g1747
sg75
(lp1762
g68
(g69
g70
NtRp1763
(dp1764
g73
(dp1765
g81
I4
ssg82
g1759
sg75
(lp1766
S"set(['E:\\\\Programming\\\\Python\\\\web2py\\\\applications\\\\vote_up\\\\', 'E:\\\\Programming\\\\Python\\\\web2py\\\\applications\\\\welcome\\\\', 'E:\\\\Programming\\\\Python\\\\web2py\\\\applications\\\\admin\\\\'])"
p1767
asbasbasbag68
(g84
g70
NtRp1768
(dp1769
g73
(dp1770
sg82
g1743
sg75
(lp1771
g68
(g89
g70
NtRp1772
(dp1773
g73
(dp1774
g93
g94
ssg82
g1768
sg75
(lp1775
g694
asbag68
(g89
g70
NtRp1776
(dp1777
g73
(dp1778
g100
g101
ssg82
g1768
sg75
(lp1779
S':'
asbag68
(g89
g70
NtRp1780
(dp1781
g73
(dp1782
sg82
g1768
sg75
(lp1783
g68
(g69
g70
NtRp1784
(dp1785
g73
(dp1786
g81
I4
ssg82
g1780
sg75
(lp1787
g707
asbasbasbag68
(g84
g70
NtRp1788
(dp1789
g73
(dp1790
sg82
g1743
sg75
(lp1791
g68
(g89
g70
NtRp1792
(dp1793
g73
(dp1794
g93
g94
ssg82
g1788
sg75
(lp1795
g716
asbag68
(g89
g70
NtRp1796
(dp1797
g73
(dp1798
g100
g101
ssg82
g1788
sg75
(lp1799
S':'
asbag68
(g89
g70
NtRp1800
(dp1801
g73
(dp1802
sg82
g1788
sg75
(lp1803
g68
(g69
g70
NtRp1804
(dp1805
g73
(dp1806
g81
I4
ssg82
g1800
sg75
(lp1807
g68
(g77
g70
NtRp1808
(dp1809
g73
(dp1810
g81
I3
ssg82
Nsg75
(lp1811
sbasbasbasbag68
(g84
g70
NtRp1812
(dp1813
g73
(dp1814
sg82
g1743
sg75
(lp1815
g68
(g89
g70
NtRp1816
(dp1817
g73
(dp1818
g93
g94
ssg82
g1812
sg75
(lp1819
g741
asbag68
(g89
g70
NtRp1820
(dp1821
g73
(dp1822
g100
g101
ssg82
g1812
sg75
(lp1823
S':'
asbag68
(g89
g70
NtRp1824
(dp1825
g73
(dp1826
sg82
g1812
sg75
(lp1827
g68
(g69
g70
NtRp1828
(dp1829
g73
(dp1830
g81
I4
ssg82
g1824
sg75
(lp1831
S"<Values at 0x2972710: {'verbose': False, 'ip': '127.0.0.1', 'shutdown_timeout': 5, 'taskbar': False, 'nocron': False, 'pid_filename': 'httpserver.pid', 'maxthreads': None, 'softcron': False, 'server_name': '1901200822091P', 'bpython': False, 'nogui': False, 'port': 8000, 'extcron': False, 'debuglevel': 30, 'test': None, 'folder': 'E:\\\\Programming\\\\Python\\\\web2py', 'config': '', 'import_models': False, 'winservice': '', 'shell': None, 'run': '', 'log_filename': 'httpserver.log', 'args': [''], 'socket_timeout': 1, 'ssl_ca_certificate': None, 'scheduler': None, 'profiler_filename': None, 'ssl_private_key': '', 'password': '<ask>', 'request_queue_size': 5, 'ssl_certificate': '', 'cronjob': False, 'numthreads': None, 'quiet': False, 'interfaces': None, 'minthreads': None, 'timeout': 10, 'plain': False, 'nobanner': False}>"
p1832
asbasbasbag68
(g84
g70
NtRp1833
(dp1834
g73
(dp1835
sg82
g1743
sg75
(lp1836
g68
(g89
g70
NtRp1837
(dp1838
g73
(dp1839
g93
g94
ssg82
g1833
sg75
(lp1840
g763
asbag68
(g89
g70
NtRp1841
(dp1842
g73
(dp1843
g100
g101
ssg82
g1833
sg75
(lp1844
S':'
asbag68
(g89
g70
NtRp1845
(dp1846
g73
(dp1847
sg82
g1833
sg75
(lp1848
g68
(g69
g70
NtRp1849
(dp1850
g73
(dp1851
g81
I4
ssg82
g1845
sg75
(lp1852
S'set([])'
p1853
asbasbasbag68
(g84
g70
NtRp1854
(dp1855
g73
(dp1856
sg82
g1743
sg75
(lp1857
g68
(g89
g70
NtRp1858
(dp1859
g73
(dp1860
g93
g94
ssg82
g1854
sg75
(lp1861
g785
asbag68
(g89
g70
NtRp1862
(dp1863
g73
(dp1864
g100
g101
ssg82
g1854
sg75
(lp1865
S':'
asbag68
(g89
g70
NtRp1866
(dp1867
g73
(dp1868
sg82
g1854
sg75
(lp1869
g68
(g69
g70
NtRp1870
(dp1871
g73
(dp1872
g81
I4
ssg82
g1866
sg75
(lp1873
g111
asbasbasbag68
(g84
g70
NtRp1874
(dp1875
g73
(dp1876
sg82
g1743
sg75
(lp1877
g68
(g89
g70
NtRp1878
(dp1879
g73
(dp1880
g93
g94
ssg82
g1874
sg75
(lp1881
g806
asbag68
(g89
g70
NtRp1882
(dp1883
g73
(dp1884
g100
g101
ssg82
g1874
sg75
(lp1885
S':'
asbag68
(g89
g70
NtRp1886
(dp1887
g73
(dp1888
sg82
g1874
sg75
(lp1889
g68
(g69
g70
NtRp1890
(dp1891
g73
(dp1892
g81
I4
ssg82
g1886
sg75
(lp1893
g819
asbasbasbag68
(g84
g70
NtRp1894
(dp1895
g73
(dp1896
sg82
g1743
sg75
(lp1897
g68
(g89
g70
NtRp1898
(dp1899
g73
(dp1900
g93
g94
ssg82
g1894
sg75
(lp1901
g1048
asbag68
(g89
g70
NtRp1902
(dp1903
g73
(dp1904
g100
g101
ssg82
g1894
sg75
(lp1905
S':'
asbag68
(g89
g70
NtRp1906
(dp1907
g73
(dp1908
sg82
g1894
sg75
(lp1909
g68
(g69
g70
NtRp1910
(dp1911
g73
(dp1912
g81
I4
ssg82
g1906
sg75
(lp1913
g111
asbasbasbag68
(g84
g70
NtRp1914
(dp1915
g73
(dp1916
sg82
g1743
sg75
(lp1917
g68
(g89
g70
NtRp1918
(dp1919
g73
(dp1920
g93
g94
ssg82
g1914
sg75
(lp1921
g1069
asbag68
(g89
g70
NtRp1922
(dp1923
g73
(dp1924
g100
g101
ssg82
g1914
sg75
(lp1925
S':'
asbag68
(g89
g70
NtRp1926
(dp1927
g73
(dp1928
sg82
g1914
sg75
(lp1929
g68
(g69
g70
NtRp1930
(dp1931
g73
(dp1932
g81
I4
ssg82
g1926
sg75
(lp1933
g111
asbasbasbag68
(g84
g70
NtRp1934
(dp1935
g73
(dp1936
sg82
g1743
sg75
(lp1937
g68
(g89
g70
NtRp1938
(dp1939
g73
(dp1940
g93
g94
ssg82
g1934
sg75
(lp1941
g1307
asbag68
(g89
g70
NtRp1942
(dp1943
g73
(dp1944
g100
g101
ssg82
g1934
sg75
(lp1945
S':'
asbag68
(g89
g70
NtRp1946
(dp1947
g73
(dp1948
sg82
g1934
sg75
(lp1949
g68
(g69
g70
NtRp1950
(dp1951
g73
(dp1952
g81
I4
ssg82
g1946
sg75
(lp1953
g1320
asbasbasbag68
(g84
g70
NtRp1954
(dp1955
g73
(dp1956
sg82
g1743
sg75
(lp1957
g68
(g89
g70
NtRp1958
(dp1959
g73
(dp1960
g93
g94
ssg82
g1954
sg75
(lp1961
g1350
asbag68
(g89
g70
NtRp1962
(dp1963
g73
(dp1964
g100
g101
ssg82
g1954
sg75
(lp1965
S':'
asbag68
(g89
g70
NtRp1966
(dp1967
g73
(dp1968
sg82
g1954
sg75
(lp1969
g68
(g69
g70
NtRp1970
(dp1971
g73
(dp1972
g81
I4
ssg82
g1966
sg75
(lp1973
g68
(g77
g70
NtRp1974
(dp1975
g73
(dp1976
g81
I3
ssg82
Nsg75
(lp1977
g68
(g84
g70
NtRp1978
(dp1979
g73
(dp1980
sg82
g1974
sg75
(lp1981
g68
(g89
g70
NtRp1982
(dp1983
g73
(dp1984
sg82
g1978
sg75
(lp1985
g68
(g69
g70
NtRp1986
(dp1987
g73
(dp1988
g81
I3
ssg82
g1982
sg75
(lp1989
S'1'
asbasbasbag68
(g84
g70
NtRp1990
(dp1991
g73
(dp1992
sg82
g1974
sg75
(lp1993
g68
(g89
g70
NtRp1994
(dp1995
g73
(dp1996
sg82
g1990
sg75
(lp1997
g68
(g69
g70
NtRp1998
(dp1999
g73
(dp2000
g81
I3
ssg82
g1994
sg75
(lp2001
S'99'
p2002
asbasbasbag68
(g84
g70
NtRp2003
(dp2004
g73
(dp2005
sg82
g1974
sg75
(lp2006
g68
(g89
g70
NtRp2007
(dp2008
g73
(dp2009
sg82
g2003
sg75
(lp2010
g68
(g69
g70
NtRp2011
(dp2012
g73
(dp2013
g81
I3
ssg82
g2007
sg75
(lp2014
S'4'
asbasbasbag68
(g84
g70
NtRp2015
(dp2016
g73
(dp2017
sg82
g1974
sg75
(lp2018
g68
(g89
g70
NtRp2019
(dp2020
g73
(dp2021
sg82
g2015
sg75
(lp2022
g68
(g69
g70
NtRp2023
(dp2024
g73
(dp2025
g81
I3
ssg82
g2019
sg75
(lp2026
S'datetime.datetime(2011, 12, 14, 14, 46, 14)'
p2027
asbasbasbag68
(g84
g70
NtRp2028
(dp2029
g73
(dp2030
sg82
g1974
sg75
(lp2031
g68
(g89
g70
NtRp2032
(dp2033
g73
(dp2034
sg82
g2028
sg75
(lp2035
g68
(g69
g70
NtRp2036
(dp2037
g73
(dp2038
g81
I3
ssg82
g2032
sg75
(lp2039
g1429
asbasbasbasbasbasbasbasbasbasbasbag68
(g84
g70
NtRp2040
(dp2041
g73
(dp2042
sg82
g78
sg75
(lp2043
g68
(g89
g70
NtRp2044
(dp2045
g73
(dp2046
g93
g94
ssg82
g2040
sg75
(lp2047
S'is_https'
p2048
asbag68
(g89
g70
NtRp2049
(dp2050
g73
(dp2051
g100
g101
ssg82
g2040
sg75
(lp2052
S':'
asbag68
(g89
g70
NtRp2053
(dp2054
g73
(dp2055
sg82
g2040
sg75
(lp2056
g68
(g69
g70
NtRp2057
(dp2058
g73
(dp2059
g81
I5
ssg82
g2053
sg75
(lp2060
g111
asbasbasbag68
(g84
g70
NtRp2061
(dp2062
g73
(dp2063
sg82
g78
sg75
(lp2064
g68
(g89
g70
NtRp2065
(dp2066
g73
(dp2067
g93
g94
ssg82
g2061
sg75
(lp2068
S'is_local'
p2069
asbag68
(g89
g70
NtRp2070
(dp2071
g73
(dp2072
g100
g101
ssg82
g2061
sg75
(lp2073
S':'
asbag68
(g89
g70
NtRp2074
(dp2075
g73
(dp2076
sg82
g2061
sg75
(lp2077
g68
(g69
g70
NtRp2078
(dp2079
g73
(dp2080
g81
I5
ssg82
g2074
sg75
(lp2081
g1538
asbasbasbag68
(g84
g70
NtRp2082
(dp2083
g73
(dp2084
sg82
g78
sg75
(lp2085
g68
(g89
g70
NtRp2086
(dp2087
g73
(dp2088
g93
g94
ssg82
g2082
sg75
(lp2089
S'is_restful'
p2090
asbag68
(g89
g70
NtRp2091
(dp2092
g73
(dp2093
g100
g101
ssg82
g2082
sg75
(lp2094
S':'
asbag68
(g89
g70
NtRp2095
(dp2096
g73
(dp2097
sg82
g2082
sg75
(lp2098
g68
(g69
g70
NtRp2099
(dp2100
g73
(dp2101
g81
I5
ssg82
g2095
sg75
(lp2102
g111
asbasbasbag68
(g84
g70
NtRp2103
(dp2104
g73
(dp2105
sg82
g78
sg75
(lp2106
g68
(g89
g70
NtRp2107
(dp2108
g73
(dp2109
g93
g94
ssg82
g2103
sg75
(lp2110
S'now'
p2111
asbag68
(g89
g70
NtRp2112
(dp2113
g73
(dp2114
g100
g101
ssg82
g2103
sg75
(lp2115
S':'
asbag68
(g89
g70
NtRp2116
(dp2117
g73
(dp2118
sg82
g2103
sg75
(lp2119
g68
(g69
g70
NtRp2120
(dp2121
g73
(dp2122
g81
I5
ssg82
g2116
sg75
(lp2123
S'datetime.datetime(2012, 2, 18, 22, 59, 50, 705000)'
p2124
asbasbasbag68
(g84
g70
NtRp2125
(dp2126
g73
(dp2127
sg82
g78
sg75
(lp2128
g68
(g89
g70
NtRp2129
(dp2130
g73
(dp2131
g93
g94
ssg82
g2125
sg75
(lp2132
S'post_vars'
p2133
asbag68
(g89
g70
NtRp2134
(dp2135
g73
(dp2136
g100
g101
ssg82
g2125
sg75
(lp2137
S':'
asbag68
(g89
g70
NtRp2138
(dp2139
g73
(dp2140
sg82
g2125
sg75
(lp2141
g68
(g69
g70
NtRp2142
(dp2143
g73
(dp2144
g81
I5
ssg82
g2138
sg75
(lp2145
g68
(g77
g70
NtRp2146
(dp2147
g73
(dp2148
g81
I4
ssg82
Nsg75
(lp2149
sbasbasbasbag68
(g84
g70
NtRp2150
(dp2151
g73
(dp2152
sg82
g78
sg75
(lp2153
g68
(g89
g70
NtRp2154
(dp2155
g73
(dp2156
g93
g94
ssg82
g2150
sg75
(lp2157
S'raw_args'
p2158
asbag68
(g89
g70
NtRp2159
(dp2160
g73
(dp2161
g100
g101
ssg82
g2150
sg75
(lp2162
S':'
asbag68
(g89
g70
NtRp2163
(dp2164
g73
(dp2165
sg82
g2150
sg75
(lp2166
g68
(g69
g70
NtRp2167
(dp2168
g73
(dp2169
g81
I5
ssg82
g2163
sg75
(lp2170
S'7'
asbasbasbag68
(g84
g70
NtRp2171
(dp2172
g73
(dp2173
sg82
g78
sg75
(lp2174
g68
(g89
g70
NtRp2175
(dp2176
g73
(dp2177
g93
g94
ssg82
g2171
sg75
(lp2178
S'url'
p2179
asbag68
(g89
g70
NtRp2180
(dp2181
g73
(dp2182
g100
g101
ssg82
g2171
sg75
(lp2183
S':'
asbag68
(g89
g70
NtRp2184
(dp2185
g73
(dp2186
sg82
g2171
sg75
(lp2187
g68
(g69
g70
NtRp2188
(dp2189
g73
(dp2190
g81
I5
ssg82
g2184
sg75
(lp2191
S'/vote_up/default/get_post/7'
p2192
asbasbasbag68
(g84
g70
NtRp2193
(dp2194
g73
(dp2195
sg82
g78
sg75
(lp2196
g68
(g89
g70
NtRp2197
(dp2198
g73
(dp2199
g93
g94
ssg82
g2193
sg75
(lp2200
S'utcnow'
p2201
asbag68
(g89
g70
NtRp2202
(dp2203
g73
(dp2204
g100
g101
ssg82
g2193
sg75
(lp2205
S':'
asbag68
(g89
g70
NtRp2206
(dp2207
g73
(dp2208
sg82
g2193
sg75
(lp2209
g68
(g69
g70
NtRp2210
(dp2211
g73
(dp2212
g81
I5
ssg82
g2206
sg75
(lp2213
S'datetime.datetime(2012, 2, 18, 17, 29, 50, 705000)'
p2214
asbasbasbag68
(g84
g70
NtRp2215
(dp2216
g73
(dp2217
sg82
g78
sg75
(lp2218
g68
(g89
g70
NtRp2219
(dp2220
g73
(dp2221
g93
g94
ssg82
g2215
sg75
(lp2222
S'uuid'
p2223
asbag68
(g89
g70
NtRp2224
(dp2225
g73
(dp2226
g100
g101
ssg82
g2215
sg75
(lp2227
S':'
asbag68
(g89
g70
NtRp2228
(dp2229
g73
(dp2230
sg82
g2215
sg75
(lp2231
g68
(g69
g70
NtRp2232
(dp2233
g73
(dp2234
g81
I5
ssg82
g2228
sg75
(lp2235
S'vote_up/127.0.0.1.2012-02-18.22-59-50.6a4353a2-03bf-4110-b936-db869f06c56b'
p2236
asbasbasbag68
(g84
g70
NtRp2237
(dp2238
g73
(dp2239
sg82
g78
sg75
(lp2240
g68
(g89
g70
NtRp2241
(dp2242
g73
(dp2243
g93
g94
ssg82
g2237
sg75
(lp2244
S'vars'
p2245
asbag68
(g89
g70
NtRp2246
(dp2247
g73
(dp2248
g100
g101
ssg82
g2237
sg75
(lp2249
S':'
asbag68
(g89
g70
NtRp2250
(dp2251
g73
(dp2252
sg82
g2237
sg75
(lp2253
g68
(g69
g70
NtRp2254
(dp2255
g73
(dp2256
g81
I5
ssg82
g2250
sg75
(lp2257
g68
(g77
g70
NtRp2258
(dp2259
g73
(dp2260
g81
I4
ssg82
Nsg75
(lp2261
sbasbasbasbag68
(g84
g70
NtRp2262
(dp2263
g73
(dp2264
sg82
g78
sg75
(lp2265
g68
(g89
g70
NtRp2266
(dp2267
g73
(dp2268
g93
g94
ssg82
g2262
sg75
(lp2269
S'wsgi'
p2270
asbag68
(g89
g70
NtRp2271
(dp2272
g73
(dp2273
g100
g101
ssg82
g2262
sg75
(lp2274
S':'
asbag68
(g89
g70
NtRp2275
(dp2276
g73
(dp2277
sg82
g2262
sg75
(lp2278
g68
(g69
g70
NtRp2279
(dp2280
g73
(dp2281
g81
I5
ssg82
g2275
sg75
(lp2282
g68
(g77
g70
NtRp2283
(dp2284
g73
(dp2285
g81
I4
ssg82
Nsg75
(lp2286
g68
(g84
g70
NtRp2287
(dp2288
g73
(dp2289
sg82
g2283
sg75
(lp2290
g68
(g89
g70
NtRp2291
(dp2292
g73
(dp2293
g93
g94
ssg82
g2287
sg75
(lp2294
S'environ'
p2295
asbag68
(g89
g70
NtRp2296
(dp2297
g73
(dp2298
g100
g101
ssg82
g2287
sg75
(lp2299
S':'
asbag68
(g89
g70
NtRp2300
(dp2301
g73
(dp2302
sg82
g2287
sg75
(lp2303
g68
(g69
g70
NtRp2304
(dp2305
g73
(dp2306
g81
I4
ssg82
g2300
sg75
(lp2307
g68
(g77
g70
NtRp2308
(dp2309
g73
(dp2310
g81
I3
ssg82
Nsg75
(lp2311
g68
(g84
g70
NtRp2312
(dp2313
g73
(dp2314
sg82
g2308
sg75
(lp2315
g68
(g89
g70
NtRp2316
(dp2317
g73
(dp2318
g93
g94
ssg82
g2312
sg75
(lp2319
S'HTTP_ACCEPT'
p2320
asbag68
(g89
g70
NtRp2321
(dp2322
g73
(dp2323
g100
g101
ssg82
g2312
sg75
(lp2324
S':'
asbag68
(g89
g70
NtRp2325
(dp2326
g73
(dp2327
sg82
g2312
sg75
(lp2328
g68
(g69
g70
NtRp2329
(dp2330
g73
(dp2331
g81
I3
ssg82
g2325
sg75
(lp2332
g841
asbasbasbag68
(g84
g70
NtRp2333
(dp2334
g73
(dp2335
sg82
g2308
sg75
(lp2336
g68
(g89
g70
NtRp2337
(dp2338
g73
(dp2339
g93
g94
ssg82
g2333
sg75
(lp2340
S'HTTP_ACCEPT_CHARSET'
p2341
asbag68
(g89
g70
NtRp2342
(dp2343
g73
(dp2344
g100
g101
ssg82
g2333
sg75
(lp2345
S':'
asbag68
(g89
g70
NtRp2346
(dp2347
g73
(dp2348
sg82
g2333
sg75
(lp2349
g68
(g69
g70
NtRp2350
(dp2351
g73
(dp2352
g81
I3
ssg82
g2346
sg75
(lp2353
g863
asbasbasbag68
(g84
g70
NtRp2354
(dp2355
g73
(dp2356
sg82
g2308
sg75
(lp2357
g68
(g89
g70
NtRp2358
(dp2359
g73
(dp2360
g93
g94
ssg82
g2354
sg75
(lp2361
S'HTTP_ACCEPT_ENCODING'
p2362
asbag68
(g89
g70
NtRp2363
(dp2364
g73
(dp2365
g100
g101
ssg82
g2354
sg75
(lp2366
S':'
asbag68
(g89
g70
NtRp2367
(dp2368
g73
(dp2369
sg82
g2354
sg75
(lp2370
g68
(g69
g70
NtRp2371
(dp2372
g73
(dp2373
g81
I3
ssg82
g2367
sg75
(lp2374
g885
asbasbasbag68
(g84
g70
NtRp2375
(dp2376
g73
(dp2377
sg82
g2308
sg75
(lp2378
g68
(g89
g70
NtRp2379
(dp2380
g73
(dp2381
g93
g94
ssg82
g2375
sg75
(lp2382
S'HTTP_ACCEPT_LANGUAGE'
p2383
asbag68
(g89
g70
NtRp2384
(dp2385
g73
(dp2386
g100
g101
ssg82
g2375
sg75
(lp2387
S':'
asbag68
(g89
g70
NtRp2388
(dp2389
g73
(dp2390
sg82
g2375
sg75
(lp2391
g68
(g69
g70
NtRp2392
(dp2393
g73
(dp2394
g81
I3
ssg82
g2388
sg75
(lp2395
g907
asbasbasbag68
(g84
g70
NtRp2396
(dp2397
g73
(dp2398
sg82
g2308
sg75
(lp2399
g68
(g89
g70
NtRp2400
(dp2401
g73
(dp2402
g93
g94
ssg82
g2396
sg75
(lp2403
S'HTTP_CACHE_CONTROL'
p2404
asbag68
(g89
g70
NtRp2405
(dp2406
g73
(dp2407
g100
g101
ssg82
g2396
sg75
(lp2408
S':'
asbag68
(g89
g70
NtRp2409
(dp2410
g73
(dp2411
sg82
g2396
sg75
(lp2412
g68
(g69
g70
NtRp2413
(dp2414
g73
(dp2415
g81
I3
ssg82
g2409
sg75
(lp2416
g929
asbasbasbag68
(g84
g70
NtRp2417
(dp2418
g73
(dp2419
sg82
g2308
sg75
(lp2420
g68
(g89
g70
NtRp2421
(dp2422
g73
(dp2423
g93
g94
ssg82
g2417
sg75
(lp2424
S'HTTP_CONNECTION'
p2425
asbag68
(g89
g70
NtRp2426
(dp2427
g73
(dp2428
g100
g101
ssg82
g2417
sg75
(lp2429
S':'
asbag68
(g89
g70
NtRp2430
(dp2431
g73
(dp2432
sg82
g2417
sg75
(lp2433
g68
(g69
g70
NtRp2434
(dp2435
g73
(dp2436
g81
I3
ssg82
g2430
sg75
(lp2437
g951
asbasbasbag68
(g84
g70
NtRp2438
(dp2439
g73
(dp2440
sg82
g2308
sg75
(lp2441
g68
(g89
g70
NtRp2442
(dp2443
g73
(dp2444
g93
g94
ssg82
g2438
sg75
(lp2445
S'HTTP_COOKIE'
p2446
asbag68
(g89
g70
NtRp2447
(dp2448
g73
(dp2449
g100
g101
ssg82
g2438
sg75
(lp2450
S':'
asbag68
(g89
g70
NtRp2451
(dp2452
g73
(dp2453
sg82
g2438
sg75
(lp2454
g68
(g69
g70
NtRp2455
(dp2456
g73
(dp2457
g81
I3
ssg82
g2451
sg75
(lp2458
g973
asbasbasbag68
(g84
g70
NtRp2459
(dp2460
g73
(dp2461
sg82
g2308
sg75
(lp2462
g68
(g89
g70
NtRp2463
(dp2464
g73
(dp2465
g93
g94
ssg82
g2459
sg75
(lp2466
S'HTTP_HOST'
p2467
asbag68
(g89
g70
NtRp2468
(dp2469
g73
(dp2470
g100
g101
ssg82
g2459
sg75
(lp2471
S':'
asbag68
(g89
g70
NtRp2472
(dp2473
g73
(dp2474
sg82
g2459
sg75
(lp2475
g68
(g69
g70
NtRp2476
(dp2477
g73
(dp2478
g81
I3
ssg82
g2472
sg75
(lp2479
g995
asbasbasbag68
(g84
g70
NtRp2480
(dp2481
g73
(dp2482
sg82
g2308
sg75
(lp2483
g68
(g89
g70
NtRp2484
(dp2485
g73
(dp2486
g93
g94
ssg82
g2480
sg75
(lp2487
S'HTTP_REFERER'
p2488
asbag68
(g89
g70
NtRp2489
(dp2490
g73
(dp2491
g100
g101
ssg82
g2480
sg75
(lp2492
S':'
asbag68
(g89
g70
NtRp2493
(dp2494
g73
(dp2495
sg82
g2480
sg75
(lp2496
g68
(g69
g70
NtRp2497
(dp2498
g73
(dp2499
g81
I3
ssg82
g2493
sg75
(lp2500
g1017
asbasbasbag68
(g84
g70
NtRp2501
(dp2502
g73
(dp2503
sg82
g2308
sg75
(lp2504
g68
(g89
g70
NtRp2505
(dp2506
g73
(dp2507
g93
g94
ssg82
g2501
sg75
(lp2508
S'HTTP_USER_AGENT'
p2509
asbag68
(g89
g70
NtRp2510
(dp2511
g73
(dp2512
g100
g101
ssg82
g2501
sg75
(lp2513
S':'
asbag68
(g89
g70
NtRp2514
(dp2515
g73
(dp2516
sg82
g2501
sg75
(lp2517
g68
(g69
g70
NtRp2518
(dp2519
g73
(dp2520
g81
I3
ssg82
g2514
sg75
(lp2521
g1039
asbasbasbag68
(g84
g70
NtRp2522
(dp2523
g73
(dp2524
sg82
g2308
sg75
(lp2525
g68
(g89
g70
NtRp2526
(dp2527
g73
(dp2528
g93
g94
ssg82
g2522
sg75
(lp2529
S'PATH_INFO'
p2530
asbag68
(g89
g70
NtRp2531
(dp2532
g73
(dp2533
g100
g101
ssg82
g2522
sg75
(lp2534
S':'
asbag68
(g89
g70
NtRp2535
(dp2536
g73
(dp2537
sg82
g2522
sg75
(lp2538
g68
(g69
g70
NtRp2539
(dp2540
g73
(dp2541
g81
I3
ssg82
g2535
sg75
(lp2542
g1103
asbasbasbag68
(g84
g70
NtRp2543
(dp2544
g73
(dp2545
sg82
g2308
sg75
(lp2546
g68
(g89
g70
NtRp2547
(dp2548
g73
(dp2549
g93
g94
ssg82
g2543
sg75
(lp2550
S'QUERY_STRING'
p2551
asbag68
(g89
g70
NtRp2552
(dp2553
g73
(dp2554
g100
g101
ssg82
g2543
sg75
(lp2555
S':'
asbag68
(g89
g70
NtRp2556
(dp2557
g73
(dp2558
sg82
g2543
sg75
(lp2559
g68
(g69
g70
NtRp2560
(dp2561
g73
(dp2562
g81
I3
ssg82
g2556
sg75
(lp2563
S''
asbasbasbag68
(g84
g70
NtRp2564
(dp2565
g73
(dp2566
sg82
g2308
sg75
(lp2567
g68
(g89
g70
NtRp2568
(dp2569
g73
(dp2570
g93
g94
ssg82
g2564
sg75
(lp2571
S'REMOTE_ADDR'
p2572
asbag68
(g89
g70
NtRp2573
(dp2574
g73
(dp2575
g100
g101
ssg82
g2564
sg75
(lp2576
S':'
asbag68
(g89
g70
NtRp2577
(dp2578
g73
(dp2579
sg82
g2564
sg75
(lp2580
g68
(g69
g70
NtRp2581
(dp2582
g73
(dp2583
g81
I3
ssg82
g2577
sg75
(lp2584
g213
asbasbasbag68
(g84
g70
NtRp2585
(dp2586
g73
(dp2587
sg82
g2308
sg75
(lp2588
g68
(g89
g70
NtRp2589
(dp2590
g73
(dp2591
g93
g94
ssg82
g2585
sg75
(lp2592
S'REMOTE_PORT'
p2593
asbag68
(g89
g70
NtRp2594
(dp2595
g73
(dp2596
g100
g101
ssg82
g2585
sg75
(lp2597
S':'
asbag68
(g89
g70
NtRp2598
(dp2599
g73
(dp2600
sg82
g2585
sg75
(lp2601
g68
(g69
g70
NtRp2602
(dp2603
g73
(dp2604
g81
I3
ssg82
g2598
sg75
(lp2605
g1167
asbasbasbag68
(g84
g70
NtRp2606
(dp2607
g73
(dp2608
sg82
g2308
sg75
(lp2609
g68
(g89
g70
NtRp2610
(dp2611
g73
(dp2612
g93
g94
ssg82
g2606
sg75
(lp2613
S'REQUEST_METHOD'
p2614
asbag68
(g89
g70
NtRp2615
(dp2616
g73
(dp2617
g100
g101
ssg82
g2606
sg75
(lp2618
S':'
asbag68
(g89
g70
NtRp2619
(dp2620
g73
(dp2621
sg82
g2606
sg75
(lp2622
g68
(g69
g70
NtRp2623
(dp2624
g73
(dp2625
g81
I3
ssg82
g2619
sg75
(lp2626
g1189
asbasbasbag68
(g84
g70
NtRp2627
(dp2628
g73
(dp2629
sg82
g2308
sg75
(lp2630
g68
(g89
g70
NtRp2631
(dp2632
g73
(dp2633
g93
g94
ssg82
g2627
sg75
(lp2634
S'SCRIPT_NAME'
p2635
asbag68
(g89
g70
NtRp2636
(dp2637
g73
(dp2638
g100
g101
ssg82
g2627
sg75
(lp2639
S':'
asbag68
(g89
g70
NtRp2640
(dp2641
g73
(dp2642
sg82
g2627
sg75
(lp2643
g68
(g69
g70
NtRp2644
(dp2645
g73
(dp2646
g81
I3
ssg82
g2640
sg75
(lp2647
S''
asbasbasbag68
(g84
g70
NtRp2648
(dp2649
g73
(dp2650
sg82
g2308
sg75
(lp2651
g68
(g89
g70
NtRp2652
(dp2653
g73
(dp2654
g93
g94
ssg82
g2648
sg75
(lp2655
S'SERVER_NAME'
p2656
asbag68
(g89
g70
NtRp2657
(dp2658
g73
(dp2659
g100
g101
ssg82
g2648
sg75
(lp2660
S':'
asbag68
(g89
g70
NtRp2661
(dp2662
g73
(dp2663
sg82
g2648
sg75
(lp2664
g68
(g69
g70
NtRp2665
(dp2666
g73
(dp2667
g81
I3
ssg82
g2661
sg75
(lp2668
g1232
asbasbasbag68
(g84
g70
NtRp2669
(dp2670
g73
(dp2671
sg82
g2308
sg75
(lp2672
g68
(g89
g70
NtRp2673
(dp2674
g73
(dp2675
g93
g94
ssg82
g2669
sg75
(lp2676
S'SERVER_PORT'
p2677
asbag68
(g89
g70
NtRp2678
(dp2679
g73
(dp2680
g100
g101
ssg82
g2669
sg75
(lp2681
S':'
asbag68
(g89
g70
NtRp2682
(dp2683
g73
(dp2684
sg82
g2669
sg75
(lp2685
g68
(g69
g70
NtRp2686
(dp2687
g73
(dp2688
g81
I3
ssg82
g2682
sg75
(lp2689
g1254
asbasbasbag68
(g84
g70
NtRp2690
(dp2691
g73
(dp2692
sg82
g2308
sg75
(lp2693
g68
(g89
g70
NtRp2694
(dp2695
g73
(dp2696
g93
g94
ssg82
g2690
sg75
(lp2697
S'SERVER_PROTOCOL'
p2698
asbag68
(g89
g70
NtRp2699
(dp2700
g73
(dp2701
g100
g101
ssg82
g2690
sg75
(lp2702
S':'
asbag68
(g89
g70
NtRp2703
(dp2704
g73
(dp2705
sg82
g2690
sg75
(lp2706
g68
(g69
g70
NtRp2707
(dp2708
g73
(dp2709
g81
I3
ssg82
g2703
sg75
(lp2710
g1276
asbasbasbag68
(g84
g70
NtRp2711
(dp2712
g73
(dp2713
sg82
g2308
sg75
(lp2714
g68
(g89
g70
NtRp2715
(dp2716
g73
(dp2717
g93
g94
ssg82
g2711
sg75
(lp2718
S'SERVER_SOFTWARE'
p2719
asbag68
(g89
g70
NtRp2720
(dp2721
g73
(dp2722
g100
g101
ssg82
g2711
sg75
(lp2723
S':'
asbag68
(g89
g70
NtRp2724
(dp2725
g73
(dp2726
sg82
g2711
sg75
(lp2727
g68
(g69
g70
NtRp2728
(dp2729
g73
(dp2730
g81
I3
ssg82
g2724
sg75
(lp2731
g1298
asbasbasbag68
(g84
g70
NtRp2732
(dp2733
g73
(dp2734
sg82
g2308
sg75
(lp2735
g68
(g89
g70
NtRp2736
(dp2737
g73
(dp2738
g93
g94
ssg82
g2732
sg75
(lp2739
S'wsgi.errors'
p2740
asbag68
(g89
g70
NtRp2741
(dp2742
g73
(dp2743
g100
g101
ssg82
g2732
sg75
(lp2744
S':'
asbag68
(g89
g70
NtRp2745
(dp2746
g73
(dp2747
sg82
g2732
sg75
(lp2748
g68
(g69
g70
NtRp2749
(dp2750
g73
(dp2751
g81
I3
ssg82
g2745
sg75
(lp2752
S"<open file '<stderr>', mode 'w' at 0x012650D0>"
p2753
asbasbasbag68
(g84
g70
NtRp2754
(dp2755
g73
(dp2756
sg82
g2308
sg75
(lp2757
g68
(g89
g70
NtRp2758
(dp2759
g73
(dp2760
g93
g94
ssg82
g2754
sg75
(lp2761
S'wsgi.file_wrapper'
p2762
asbag68
(g89
g70
NtRp2763
(dp2764
g73
(dp2765
g100
g101
ssg82
g2754
sg75
(lp2766
S':'
asbag68
(g89
g70
NtRp2767
(dp2768
g73
(dp2769
sg82
g2754
sg75
(lp2770
g68
(g69
g70
NtRp2771
(dp2772
g73
(dp2773
g81
I3
ssg82
g2767
sg75
(lp2774
S'<class wsgiref.util.FileWrapper at 0x028B4880>'
p2775
asbasbasbag68
(g84
g70
NtRp2776
(dp2777
g73
(dp2778
sg82
g2308
sg75
(lp2779
g68
(g89
g70
NtRp2780
(dp2781
g73
(dp2782
g93
g94
ssg82
g2776
sg75
(lp2783
S'wsgi.input'
p2784
asbag68
(g89
g70
NtRp2785
(dp2786
g73
(dp2787
g100
g101
ssg82
g2776
sg75
(lp2788
S':'
asbag68
(g89
g70
NtRp2789
(dp2790
g73
(dp2791
sg82
g2776
sg75
(lp2792
g68
(g69
g70
NtRp2793
(dp2794
g73
(dp2795
g81
I3
ssg82
g2789
sg75
(lp2796
S'<cStringIO.StringO object at 0x06CF0BA0>'
p2797
asbasbasbag68
(g84
g70
NtRp2798
(dp2799
g73
(dp2800
sg82
g2308
sg75
(lp2801
g68
(g89
g70
NtRp2802
(dp2803
g73
(dp2804
g93
g94
ssg82
g2798
sg75
(lp2805
S'wsgi.multiprocess'
p2806
asbag68
(g89
g70
NtRp2807
(dp2808
g73
(dp2809
g100
g101
ssg82
g2798
sg75
(lp2810
S':'
asbag68
(g89
g70
NtRp2811
(dp2812
g73
(dp2813
sg82
g2798
sg75
(lp2814
g68
(g69
g70
NtRp2815
(dp2816
g73
(dp2817
g81
I3
ssg82
g2811
sg75
(lp2818
g111
asbasbasbag68
(g84
g70
NtRp2819
(dp2820
g73
(dp2821
sg82
g2308
sg75
(lp2822
g68
(g89
g70
NtRp2823
(dp2824
g73
(dp2825
g93
g94
ssg82
g2819
sg75
(lp2826
S'wsgi.multithread'
p2827
asbag68
(g89
g70
NtRp2828
(dp2829
g73
(dp2830
g100
g101
ssg82
g2819
sg75
(lp2831
S':'
asbag68
(g89
g70
NtRp2832
(dp2833
g73
(dp2834
sg82
g2819
sg75
(lp2835
g68
(g69
g70
NtRp2836
(dp2837
g73
(dp2838
g81
I3
ssg82
g2832
sg75
(lp2839
g1538
asbasbasbag68
(g84
g70
NtRp2840
(dp2841
g73
(dp2842
sg82
g2308
sg75
(lp2843
g68
(g89
g70
NtRp2844
(dp2845
g73
(dp2846
g93
g94
ssg82
g2840
sg75
(lp2847
S'wsgi.run_once'
p2848
asbag68
(g89
g70
NtRp2849
(dp2850
g73
(dp2851
g100
g101
ssg82
g2840
sg75
(lp2852
S':'
asbag68
(g89
g70
NtRp2853
(dp2854
g73
(dp2855
sg82
g2840
sg75
(lp2856
g68
(g69
g70
NtRp2857
(dp2858
g73
(dp2859
g81
I3
ssg82
g2853
sg75
(lp2860
g111
asbasbasbag68
(g84
g70
NtRp2861
(dp2862
g73
(dp2863
sg82
g2308
sg75
(lp2864
g68
(g89
g70
NtRp2865
(dp2866
g73
(dp2867
g93
g94
ssg82
g2861
sg75
(lp2868
S'wsgi.url_scheme'
p2869
asbag68
(g89
g70
NtRp2870
(dp2871
g73
(dp2872
g100
g101
ssg82
g2861
sg75
(lp2873
S':'
asbag68
(g89
g70
NtRp2874
(dp2875
g73
(dp2876
sg82
g2861
sg75
(lp2877
g68
(g69
g70
NtRp2878
(dp2879
g73
(dp2880
g81
I3
ssg82
g2874
sg75
(lp2881
g1581
asbasbasbag68
(g84
g70
NtRp2882
(dp2883
g73
(dp2884
sg82
g2308
sg75
(lp2885
g68
(g89
g70
NtRp2886
(dp2887
g73
(dp2888
g93
g94
ssg82
g2882
sg75
(lp2889
S'wsgi.version'
p2890
asbag68
(g89
g70
NtRp2891
(dp2892
g73
(dp2893
g100
g101
ssg82
g2882
sg75
(lp2894
S':'
asbag68
(g89
g70
NtRp2895
(dp2896
g73
(dp2897
sg82
g2882
sg75
(lp2898
g68
(g69
g70
NtRp2899
(dp2900
g73
(dp2901
g81
I3
ssg82
g2895
sg75
(lp2902
S'1'
asbasbasbasbasbasbasbasbasbasbasbasbasbsS'frames'
p2903
(lp2904
(dp2905
S'file'
p2906
S'E:\\Programming\\Python\\web2py\\gluon\\restricted.py'
p2907
sS'dump'
p2908
(dp2909
S'code'
p2910
S'\'response.write(\\\'<!DOCTYPE HTML>\\\\r\\\\n<html lang="e...script>\\\\r\\\\n    </body>\\\\r\\\\n</html>\\\', escape=False)\''
p2911
sS'layer'
p2912
S"r'E:\\Programming\\Python\\web2py\\applications\\vote_up\\views\\default/post.html'"
p2913
sS'global compile2'
p2914
S'<function compile2>'
p2915
sS'ccode'
p2916
S'undefined'
p2917
ssS'lnum'
p2918
I203
sS'lines'
p2919
(dp2920
I198
S"    environment['__file__'] = layer"
p2921
sI199
S'    try:'
p2922
sI200
S'        if type(code) == types.CodeType:'
p2923
sI201
S'            ccode = code'
p2924
sI202
S'        else:'
p2925
sI203
S'            ccode = compile2(code,layer)'
p2926
sI204
S'        exec ccode in environment'
p2927
sI205
S'    except HTTP:'
p2928
sI206
S'        raise'
p2929
sI207
S'    except RestrictedError:'
p2930
ssS'call'
p2931
S'(code=\'response.write(\\\'<!DOCTYPE HTML>\\\\r\\\\n<html lang="e...script>\\\\r\\\\n    </body>\\\\r\\\\n</html>\\\', escape=False)\', environment={\'A\': <class \'gluon.html.A\'>, \'Auth\': <class \'gluon.tools.Auth\'>, \'B\': <class \'gluon.html.B\'>, \'BEAUTIFY\': <class \'gluon.html.BEAUTIFY\'>, \'BODY\': <class \'gluon.html.BODY\'>, \'BR\': <class \'gluon.html.BR\'>, \'BUTTON\': <class \'gluon.html.BUTTON\'>, \'CAT\': <class \'gluon.html.CAT\'>, \'CENTER\': <class \'gluon.html.CENTER\'>, \'CLEANUP\': <class \'gluon.validators.CLEANUP\'>, ...}, layer=r\'E:\\Programming\\Python\\web2py\\applications\\vote_up\\views\\default/post.html\')'
p2932
sS'func'
p2933
S'restricted'
p2934
sa(dp2935
g2906
S'E:\\Programming\\Python\\web2py\\gluon\\restricted.py'
p2936
sg2908
(dp2937
S'builtincompile'
p2938
S'<built-in function compile>'
p2939
sS'code'
p2940
S'\'response.write(\\\'<!DOCTYPE HTML>\\\\r\\\\n<html lang="e...script>\\\\r\\\\n    </body>\\\\r\\\\n</html>\\\', escape=False)\''
p2941
sS'code.rstrip'
p2942
S'<built-in method rstrip of str object>'
p2943
sS').replace'
p2944
g2917
sS'layer'
p2945
S"r'E:\\Programming\\Python\\web2py\\applications\\vote_up\\views\\default/post.html'"
p2946
ssg2918
I189
sg2919
(dp2947
I192
S'    """'
p2948
sI193
S'    runs code in environment and returns the output. if an exception occurs'
p2949
sI184
S''
sI185
S'def compile2(code,layer):'
p2950
sI186
S'    """'
p2951
sI187
S"    The +'\\n' is necessary else compile fails when code ends in a comment."
p2952
sI188
S'    """'
p2953
sI189
S"    return compile(code.rstrip().replace('\\r\\n','\\n')+'\\n', layer, 'exec')"
p2954
sI190
S''
sI191
S"def restricted(code, environment=None, layer='Unknown'):"
p2955
ssg2931
S'(code=\'response.write(\\\'<!DOCTYPE HTML>\\\\r\\\\n<html lang="e...script>\\\\r\\\\n    </body>\\\\r\\\\n</html>\\\', escape=False)\', layer=r\'E:\\Programming\\Python\\web2py\\applications\\vote_up\\views\\default/post.html\')'
p2956
sg2933
S'compile2'
p2957
sasS'pyver'
p2958
S'Python 2.7.2: C:\\Python27\\python.exe'
p2959
sS'session'
p2960
g68
(g69
g70
NtRp2961
(dp2962
g73
(dp2963
sg75
(lp2964
g68
(g77
g70
NtRp2965
(dp2966
g73
(dp2967
g81
I5
ssg82
Nsg75
(lp2968
sbasbsS'etype'
p2969
S"<type 'exceptions.SyntaxError'>"
p2970
sS'date'
p2971
S'Sat Feb 18 22:59:51 2012'
p2972
sS'response'
p2973
g68
(g69
g70
NtRp2974
(dp2975
g73
(dp2976
sg75
(lp2977
g68
(g77
g70
NtRp2978
(dp2979
g73
(dp2980
g81
I5
ssg82
Nsg75
(lp2981
g68
(g84
g70
NtRp2982
(dp2983
g73
(dp2984
sg82
g2978
sg75
(lp2985
g68
(g89
g70
NtRp2986
(dp2987
g73
(dp2988
g93
g94
ssg82
g2982
sg75
(lp2989
g178
asbag68
(g89
g70
NtRp2990
(dp2991
g73
(dp2992
g100
g101
ssg82
g2982
sg75
(lp2993
S':'
asbag68
(g89
g70
NtRp2994
(dp2995
g73
(dp2996
sg82
g2982
sg75
(lp2997
g68
(g69
g70
NtRp2998
(dp2999
g73
(dp3000
g81
I5
ssg82
g2994
sg75
(lp3001
S'<cStringIO.StringO object at 0x06EFA460>'
p3002
asbasbasbag68
(g84
g70
NtRp3003
(dp3004
g73
(dp3005
sg82
g2978
sg75
(lp3006
g68
(g89
g70
NtRp3007
(dp3008
g73
(dp3009
g93
g94
ssg82
g3003
sg75
(lp3010
g244
asbag68
(g89
g70
NtRp3011
(dp3012
g73
(dp3013
g100
g101
ssg82
g3003
sg75
(lp3014
S':'
asbag68
(g89
g70
NtRp3015
(dp3016
g73
(dp3017
sg82
g3003
sg75
(lp3018
g68
(g69
g70
NtRp3019
(dp3020
g73
(dp3021
g81
I5
ssg82
g3015
sg75
(lp3022
g68
(g77
g70
NtRp3023
(dp3024
g73
(dp3025
g81
I4
ssg82
Nsg75
(lp3026
g68
(g84
g70
NtRp3027
(dp3028
g73
(dp3029
sg82
g3023
sg75
(lp3030
g68
(g89
g70
NtRp3031
(dp3032
g73
(dp3033
g93
g94
ssg82
g3027
sg75
(lp3034
S'session_id_vote_up'
p3035
asbag68
(g89
g70
NtRp3036
(dp3037
g73
(dp3038
g100
g101
ssg82
g3027
sg75
(lp3039
S':'
asbag68
(g89
g70
NtRp3040
(dp3041
g73
(dp3042
sg82
g3027
sg75
(lp3043
g68
(g69
g70
NtRp3044
(dp3045
g73
(dp3046
g81
I4
ssg82
g3040
sg75
(lp3047
g68
(g77
g70
NtRp3048
(dp3049
g73
(dp3050
g81
I3
ssg82
Nsg75
(lp3051
g68
(g84
g70
NtRp3052
(dp3053
g73
(dp3054
sg82
g3048
sg75
(lp3055
g68
(g89
g70
NtRp3056
(dp3057
g73
(dp3058
g93
g94
ssg82
g3052
sg75
(lp3059
g294
asbag68
(g89
g70
NtRp3060
(dp3061
g73
(dp3062
g100
g101
ssg82
g3052
sg75
(lp3063
S':'
asbag68
(g89
g70
NtRp3064
(dp3065
g73
(dp3066
sg82
g3052
sg75
(lp3067
g68
(g69
g70
NtRp3068
(dp3069
g73
(dp3070
g81
I3
ssg82
g3064
sg75
(lp3071
S''
asbasbasbag68
(g84
g70
NtRp3072
(dp3073
g73
(dp3074
sg82
g3048
sg75
(lp3075
g68
(g89
g70
NtRp3076
(dp3077
g73
(dp3078
g93
g94
ssg82
g3072
sg75
(lp3079
g315
asbag68
(g89
g70
NtRp3080
(dp3081
g73
(dp3082
g100
g101
ssg82
g3072
sg75
(lp3083
S':'
asbag68
(g89
g70
NtRp3084
(dp3085
g73
(dp3086
sg82
g3072
sg75
(lp3087
g68
(g69
g70
NtRp3088
(dp3089
g73
(dp3090
g81
I3
ssg82
g3084
sg75
(lp3091
S''
asbasbasbag68
(g84
g70
NtRp3092
(dp3093
g73
(dp3094
sg82
g3048
sg75
(lp3095
g68
(g89
g70
NtRp3096
(dp3097
g73
(dp3098
g93
g94
ssg82
g3092
sg75
(lp3099
g336
asbag68
(g89
g70
NtRp3100
(dp3101
g73
(dp3102
g100
g101
ssg82
g3092
sg75
(lp3103
S':'
asbag68
(g89
g70
NtRp3104
(dp3105
g73
(dp3106
sg82
g3092
sg75
(lp3107
g68
(g69
g70
NtRp3108
(dp3109
g73
(dp3110
g81
I3
ssg82
g3104
sg75
(lp3111
S''
asbasbasbag68
(g84
g70
NtRp3112
(dp3113
g73
(dp3114
sg82
g3048
sg75
(lp3115
g68
(g89
g70
NtRp3116
(dp3117
g73
(dp3118
g93
g94
ssg82
g3112
sg75
(lp3119
g357
asbag68
(g89
g70
NtRp3120
(dp3121
g73
(dp3122
g100
g101
ssg82
g3112
sg75
(lp3123
S':'
asbag68
(g89
g70
NtRp3124
(dp3125
g73
(dp3126
sg82
g3112
sg75
(lp3127
g68
(g69
g70
NtRp3128
(dp3129
g73
(dp3130
g81
I3
ssg82
g3124
sg75
(lp3131
S''
asbasbasbag68
(g84
g70
NtRp3132
(dp3133
g73
(dp3134
sg82
g3048
sg75
(lp3135
g68
(g89
g70
NtRp3136
(dp3137
g73
(dp3138
g93
g94
ssg82
g3132
sg75
(lp3139
g378
asbag68
(g89
g70
NtRp3140
(dp3141
g73
(dp3142
g100
g101
ssg82
g3132
sg75
(lp3143
S':'
asbag68
(g89
g70
NtRp3144
(dp3145
g73
(dp3146
sg82
g3132
sg75
(lp3147
g68
(g69
g70
NtRp3148
(dp3149
g73
(dp3150
g81
I3
ssg82
g3144
sg75
(lp3151
S''
asbasbasbag68
(g84
g70
NtRp3152
(dp3153
g73
(dp3154
sg82
g3048
sg75
(lp3155
g68
(g89
g70
NtRp3156
(dp3157
g73
(dp3158
g93
g94
ssg82
g3152
sg75
(lp3159
g399
asbag68
(g89
g70
NtRp3160
(dp3161
g73
(dp3162
g100
g101
ssg82
g3152
sg75
(lp3163
S':'
asbag68
(g89
g70
NtRp3164
(dp3165
g73
(dp3166
sg82
g3152
sg75
(lp3167
g68
(g69
g70
NtRp3168
(dp3169
g73
(dp3170
g81
I3
ssg82
g3164
sg75
(lp3171
S'/'
asbasbasbag68
(g84
g70
NtRp3172
(dp3173
g73
(dp3174
sg82
g3048
sg75
(lp3175
g68
(g89
g70
NtRp3176
(dp3177
g73
(dp3178
g93
g94
ssg82
g3172
sg75
(lp3179
g420
asbag68
(g89
g70
NtRp3180
(dp3181
g73
(dp3182
g100
g101
ssg82
g3172
sg75
(lp3183
S':'
asbag68
(g89
g70
NtRp3184
(dp3185
g73
(dp3186
sg82
g3172
sg75
(lp3187
g68
(g69
g70
NtRp3188
(dp3189
g73
(dp3190
g81
I3
ssg82
g3184
sg75
(lp3191
S''
asbasbasbag68
(g84
g70
NtRp3192
(dp3193
g73
(dp3194
sg82
g3048
sg75
(lp3195
g68
(g89
g70
NtRp3196
(dp3197
g73
(dp3198
g93
g94
ssg82
g3192
sg75
(lp3199
g441
asbag68
(g89
g70
NtRp3200
(dp3201
g73
(dp3202
g100
g101
ssg82
g3192
sg75
(lp3203
S':'
asbag68
(g89
g70
NtRp3204
(dp3205
g73
(dp3206
sg82
g3192
sg75
(lp3207
g68
(g69
g70
NtRp3208
(dp3209
g73
(dp3210
g81
I3
ssg82
g3204
sg75
(lp3211
S''
asbasbasbasbasbasbasbasbasbasbasbag68
(g84
g70
NtRp3212
(dp3213
g73
(dp3214
sg82
g2978
sg75
(lp3215
g68
(g89
g70
NtRp3216
(dp3217
g73
(dp3218
g93
g94
ssg82
g3212
sg75
(lp3219
S'files'
p3220
asbag68
(g89
g70
NtRp3221
(dp3222
g73
(dp3223
g100
g101
ssg82
g3212
sg75
(lp3224
S':'
asbag68
(g89
g70
NtRp3225
(dp3226
g73
(dp3227
sg82
g3212
sg75
(lp3228
g68
(g69
g70
NtRp3229
(dp3230
g73
(dp3231
g81
I5
ssg82
g3225
sg75
(lp3232
g68
(g77
g70
NtRp3233
(dp3234
g73
(dp3235
g81
I4
ssg82
Nsg75
(lp3236
sbasbasbasbag68
(g84
g70
NtRp3237
(dp3238
g73
(dp3239
sg82
g2978
sg75
(lp3240
g68
(g89
g70
NtRp3241
(dp3242
g73
(dp3243
g93
g94
ssg82
g3237
sg75
(lp3244
S'flash'
p3245
asbag68
(g89
g70
NtRp3246
(dp3247
g73
(dp3248
g100
g101
ssg82
g3237
sg75
(lp3249
S':'
asbag68
(g89
g70
NtRp3250
(dp3251
g73
(dp3252
sg82
g3237
sg75
(lp3253
g68
(g69
g70
NtRp3254
(dp3255
g73
(dp3256
g81
I5
ssg82
g3250
sg75
(lp3257
S''
asbasbasbag68
(g84
g70
NtRp3258
(dp3259
g73
(dp3260
sg82
g2978
sg75
(lp3261
g68
(g89
g70
NtRp3262
(dp3263
g73
(dp3264
g93
g94
ssg82
g3258
sg75
(lp3265
S'generic_patterns'
p3266
asbag68
(g89
g70
NtRp3267
(dp3268
g73
(dp3269
g100
g101
ssg82
g3258
sg75
(lp3270
S':'
asbag68
(g89
g70
NtRp3271
(dp3272
g73
(dp3273
sg82
g3258
sg75
(lp3274
g68
(g69
g70
NtRp3275
(dp3276
g73
(dp3277
g81
I5
ssg82
g3271
sg75
(lp3278
g68
(g77
g70
NtRp3279
(dp3280
g73
(dp3281
g81
I4
ssg82
Nsg75
(lp3282
g68
(g84
g70
NtRp3283
(dp3284
g73
(dp3285
sg82
g3279
sg75
(lp3286
g68
(g89
g70
NtRp3287
(dp3288
g73
(dp3289
sg82
g3283
sg75
(lp3290
g68
(g69
g70
NtRp3291
(dp3292
g73
(dp3293
g81
I4
ssg82
g3287
sg75
(lp3294
S'*'
asbasbasbasbasbasbasbag68
(g84
g70
NtRp3295
(dp3296
g73
(dp3297
sg82
g2978
sg75
(lp3298
g68
(g89
g70
NtRp3299
(dp3300
g73
(dp3301
g93
g94
ssg82
g3295
sg75
(lp3302
S'headers'
p3303
asbag68
(g89
g70
NtRp3304
(dp3305
g73
(dp3306
g100
g101
ssg82
g3295
sg75
(lp3307
S':'
asbag68
(g89
g70
NtRp3308
(dp3309
g73
(dp3310
sg82
g3295
sg75
(lp3311
g68
(g69
g70
NtRp3312
(dp3313
g73
(dp3314
g81
I5
ssg82
g3308
sg75
(lp3315
g68
(g77
g70
NtRp3316
(dp3317
g73
(dp3318
g81
I4
ssg82
Nsg75
(lp3319
g68
(g84
g70
NtRp3320
(dp3321
g73
(dp3322
sg82
g3316
sg75
(lp3323
g68
(g89
g70
NtRp3324
(dp3325
g73
(dp3326
g93
g94
ssg82
g3320
sg75
(lp3327
S'Cache-Control'
p3328
asbag68
(g89
g70
NtRp3329
(dp3330
g73
(dp3331
g100
g101
ssg82
g3320
sg75
(lp3332
S':'
asbag68
(g89
g70
NtRp3333
(dp3334
g73
(dp3335
sg82
g3320
sg75
(lp3336
g68
(g69
g70
NtRp3337
(dp3338
g73
(dp3339
g81
I4
ssg82
g3333
sg75
(lp3340
S'no-store, no-cache, must-revalidate, post-check=0, pre-check=0'
p3341
asbasbasbag68
(g84
g70
NtRp3342
(dp3343
g73
(dp3344
sg82
g3316
sg75
(lp3345
g68
(g89
g70
NtRp3346
(dp3347
g73
(dp3348
g93
g94
ssg82
g3342
sg75
(lp3349
S'Content-Type'
p3350
asbag68
(g89
g70
NtRp3351
(dp3352
g73
(dp3353
g100
g101
ssg82
g3342
sg75
(lp3354
S':'
asbag68
(g89
g70
NtRp3355
(dp3356
g73
(dp3357
sg82
g3342
sg75
(lp3358
g68
(g69
g70
NtRp3359
(dp3360
g73
(dp3361
g81
I4
ssg82
g3355
sg75
(lp3362
S'text/html; charset=utf-8'
p3363
asbasbasbag68
(g84
g70
NtRp3364
(dp3365
g73
(dp3366
sg82
g3316
sg75
(lp3367
g68
(g89
g70
NtRp3368
(dp3369
g73
(dp3370
g93
g94
ssg82
g3364
sg75
(lp3371
S'Expires'
p3372
asbag68
(g89
g70
NtRp3373
(dp3374
g73
(dp3375
g100
g101
ssg82
g3364
sg75
(lp3376
S':'
asbag68
(g89
g70
NtRp3377
(dp3378
g73
(dp3379
sg82
g3364
sg75
(lp3380
g68
(g69
g70
NtRp3381
(dp3382
g73
(dp3383
g81
I4
ssg82
g3377
sg75
(lp3384
S'Sat, 18 Feb 2012 17:29:50 GMT'
p3385
asbasbasbag68
(g84
g70
NtRp3386
(dp3387
g73
(dp3388
sg82
g3316
sg75
(lp3389
g68
(g89
g70
NtRp3390
(dp3391
g73
(dp3392
g93
g94
ssg82
g3386
sg75
(lp3393
S'Pragma'
p3394
asbag68
(g89
g70
NtRp3395
(dp3396
g73
(dp3397
g100
g101
ssg82
g3386
sg75
(lp3398
S':'
asbag68
(g89
g70
NtRp3399
(dp3400
g73
(dp3401
sg82
g3386
sg75
(lp3402
g68
(g69
g70
NtRp3403
(dp3404
g73
(dp3405
g81
I4
ssg82
g3399
sg75
(lp3406
S'no-cache'
p3407
asbasbasbag68
(g84
g70
NtRp3408
(dp3409
g73
(dp3410
sg82
g3316
sg75
(lp3411
g68
(g89
g70
NtRp3412
(dp3413
g73
(dp3414
g93
g94
ssg82
g3408
sg75
(lp3415
S'X-Powered-By'
p3416
asbag68
(g89
g70
NtRp3417
(dp3418
g73
(dp3419
g100
g101
ssg82
g3408
sg75
(lp3420
S':'
asbag68
(g89
g70
NtRp3421
(dp3422
g73
(dp3423
sg82
g3408
sg75
(lp3424
g68
(g69
g70
NtRp3425
(dp3426
g73
(dp3427
g81
I4
ssg82
g3421
sg75
(lp3428
S'web2py'
p3429
asbasbasbasbasbasbasbag68
(g84
g70
NtRp3430
(dp3431
g73
(dp3432
sg82
g2978
sg75
(lp3433
g68
(g89
g70
NtRp3434
(dp3435
g73
(dp3436
g93
g94
ssg82
g3430
sg75
(lp3437
S'menu'
p3438
asbag68
(g89
g70
NtRp3439
(dp3440
g73
(dp3441
g100
g101
ssg82
g3430
sg75
(lp3442
S':'
asbag68
(g89
g70
NtRp3443
(dp3444
g73
(dp3445
sg82
g3430
sg75
(lp3446
g68
(g69
g70
NtRp3447
(dp3448
g73
(dp3449
g81
I5
ssg82
g3443
sg75
(lp3450
g68
(g77
g70
NtRp3451
(dp3452
g73
(dp3453
g81
I4
ssg82
Nsg75
(lp3454
sbasbasbasbag68
(g84
g70
NtRp3455
(dp3456
g73
(dp3457
sg82
g2978
sg75
(lp3458
g68
(g89
g70
NtRp3459
(dp3460
g73
(dp3461
g93
g94
ssg82
g3455
sg75
(lp3462
S'meta'
p3463
asbag68
(g89
g70
NtRp3464
(dp3465
g73
(dp3466
g100
g101
ssg82
g3455
sg75
(lp3467
S':'
asbag68
(g89
g70
NtRp3468
(dp3469
g73
(dp3470
sg82
g3455
sg75
(lp3471
g68
(g69
g70
NtRp3472
(dp3473
g73
(dp3474
g81
I5
ssg82
g3468
sg75
(lp3475
g68
(g77
g70
NtRp3476
(dp3477
g73
(dp3478
g81
I4
ssg82
Nsg75
(lp3479
sbasbasbasbag68
(g84
g70
NtRp3480
(dp3481
g73
(dp3482
sg82
g2978
sg75
(lp3483
g68
(g89
g70
NtRp3484
(dp3485
g73
(dp3486
g93
g94
ssg82
g3480
sg75
(lp3487
S'postprocessing'
p3488
asbag68
(g89
g70
NtRp3489
(dp3490
g73
(dp3491
g100
g101
ssg82
g3480
sg75
(lp3492
S':'
asbag68
(g89
g70
NtRp3493
(dp3494
g73
(dp3495
sg82
g3480
sg75
(lp3496
g68
(g69
g70
NtRp3497
(dp3498
g73
(dp3499
g81
I5
ssg82
g3493
sg75
(lp3500
g68
(g77
g70
NtRp3501
(dp3502
g73
(dp3503
g81
I4
ssg82
Nsg75
(lp3504
sbasbasbasbag68
(g84
g70
NtRp3505
(dp3506
g73
(dp3507
sg82
g2978
sg75
(lp3508
g68
(g89
g70
NtRp3509
(dp3510
g73
(dp3511
g93
g94
ssg82
g3505
sg75
(lp3512
S'session_filename'
p3513
asbag68
(g89
g70
NtRp3514
(dp3515
g73
(dp3516
g100
g101
ssg82
g3505
sg75
(lp3517
S':'
asbag68
(g89
g70
NtRp3518
(dp3519
g73
(dp3520
sg82
g3505
sg75
(lp3521
g68
(g69
g70
NtRp3522
(dp3523
g73
(dp3524
g81
I5
ssg82
g3518
sg75
(lp3525
S'E:\\Programming\\Python\\web2py\\applications\\vote_up\\sessions\\127.0.0.1-ab013ffc-f8a7-4661-9692-de9ca4370e92'
p3526
asbasbasbag68
(g84
g70
NtRp3527
(dp3528
g73
(dp3529
sg82
g2978
sg75
(lp3530
g68
(g89
g70
NtRp3531
(dp3532
g73
(dp3533
g93
g94
ssg82
g3527
sg75
(lp3534
S'session_id'
p3535
asbag68
(g89
g70
NtRp3536
(dp3537
g73
(dp3538
g100
g101
ssg82
g3527
sg75
(lp3539
S':'
asbag68
(g89
g70
NtRp3540
(dp3541
g73
(dp3542
sg82
g3527
sg75
(lp3543
g68
(g69
g70
NtRp3544
(dp3545
g73
(dp3546
g81
I5
ssg82
g3540
sg75
(lp3547
S'127.0.0.1-ab013ffc-f8a7-4661-9692-de9ca4370e92'
p3548
asbasbasbag68
(g84
g70
NtRp3549
(dp3550
g73
(dp3551
sg82
g2978
sg75
(lp3552
g68
(g89
g70
NtRp3553
(dp3554
g73
(dp3555
g93
g94
ssg82
g3549
sg75
(lp3556
S'session_id_name'
p3557
asbag68
(g89
g70
NtRp3558
(dp3559
g73
(dp3560
g100
g101
ssg82
g3549
sg75
(lp3561
S':'
asbag68
(g89
g70
NtRp3562
(dp3563
g73
(dp3564
sg82
g3549
sg75
(lp3565
g68
(g69
g70
NtRp3566
(dp3567
g73
(dp3568
g81
I5
ssg82
g3562
sg75
(lp3569
g3035
asbasbasbag68
(g84
g70
NtRp3570
(dp3571
g73
(dp3572
sg82
g2978
sg75
(lp3573
g68
(g89
g70
NtRp3574
(dp3575
g73
(dp3576
g93
g94
ssg82
g3570
sg75
(lp3577
S'session_new'
p3578
asbag68
(g89
g70
NtRp3579
(dp3580
g73
(dp3581
g100
g101
ssg82
g3570
sg75
(lp3582
S':'
asbag68
(g89
g70
NtRp3583
(dp3584
g73
(dp3585
sg82
g3570
sg75
(lp3586
g68
(g69
g70
NtRp3587
(dp3588
g73
(dp3589
g81
I5
ssg82
g3583
sg75
(lp3590
g1538
asbasbasbag68
(g84
g70
NtRp3591
(dp3592
g73
(dp3593
sg82
g2978
sg75
(lp3594
g68
(g89
g70
NtRp3595
(dp3596
g73
(dp3597
g93
g94
ssg82
g3591
sg75
(lp3598
S'status'
p3599
asbag68
(g89
g70
NtRp3600
(dp3601
g73
(dp3602
g100
g101
ssg82
g3591
sg75
(lp3603
S':'
asbag68
(g89
g70
NtRp3604
(dp3605
g73
(dp3606
sg82
g3591
sg75
(lp3607
g68
(g69
g70
NtRp3608
(dp3609
g73
(dp3610
g81
I5
ssg82
g3604
sg75
(lp3611
S'200'
p3612
asbasbasbag68
(g84
g70
NtRp3613
(dp3614
g73
(dp3615
sg82
g2978
sg75
(lp3616
g68
(g89
g70
NtRp3617
(dp3618
g73
(dp3619
g93
g94
ssg82
g3613
sg75
(lp3620
g2223
asbag68
(g89
g70
NtRp3621
(dp3622
g73
(dp3623
g100
g101
ssg82
g3613
sg75
(lp3624
S':'
asbag68
(g89
g70
NtRp3625
(dp3626
g73
(dp3627
sg82
g3613
sg75
(lp3628
g68
(g69
g70
NtRp3629
(dp3630
g73
(dp3631
g81
I5
ssg82
g3625
sg75
(lp3632
g2236
asbasbasbag68
(g84
g70
NtRp3633
(dp3634
g73
(dp3635
sg82
g2978
sg75
(lp3636
g68
(g89
g70
NtRp3637
(dp3638
g73
(dp3639
g93
g94
ssg82
g3633
sg75
(lp3640
S'view'
p3641
asbag68
(g89
g70
NtRp3642
(dp3643
g73
(dp3644
g100
g101
ssg82
g3633
sg75
(lp3645
S':'
asbag68
(g89
g70
NtRp3646
(dp3647
g73
(dp3648
sg82
g3633
sg75
(lp3649
g68
(g69
g70
NtRp3650
(dp3651
g73
(dp3652
g81
I5
ssg82
g3646
sg75
(lp3653
S'default/post.html'
p3654
asbasbasbasbasbsS'locals'
p3655
(dp3656
g4
S"r'E:\\Programming\\Python\\web2py\\applications\\vote_up\\views\\default/post.html'"
p3657
sg6
S'\'response.write(\\\'<!DOCTYPE HTML>\\\\r\\\\n<html lang="e...script>\\\\r\\\\n    </body>\\\\r\\\\n</html>\\\', escape=False)\''
p3658
sssS'traceback'
p3659
S'Traceback (most recent call last):\n  File "E:\\Programming\\Python\\web2py\\gluon\\restricted.py", line 203, in restricted\n    ccode = compile2(code,layer)\n  File "E:\\Programming\\Python\\web2py\\gluon\\restricted.py", line 189, in compile2\n    return compile(code.rstrip().replace(\'\\r\\n\',\'\\n\')+\'\\n\', layer, \'exec\')\n  File "E:\\Programming\\Python\\web2py\\applications\\vote_up\\views\\default/post.html", line 4\n    if responses:for response in responses:\n                   ^\nSyntaxError: invalid syntax\n'
p3660
s.