(dp1
S'output'
p2
S"<type 'exceptions.NameError'> global name 'self' is not defined"
p3
sS'layer'
p4
S'E:\\Programming\\Python\\web2py\\applications\\vote_up\\controllers/default.py'
p5
sS'code'
p6
S'def index():\n    \'\'\'Display a post, its comments, its responses and allow for vote-up\'\'\'\n    posts=db(db.posts).select()\n    return response.render(\'default/index.html\', locals())\n    \ndef new_post():\n    \'\'\'Accept a new post\'\'\'\n    post_id = db.posts.insert(\n        title = request.vars["title"],\n        message = request.vars["message"]\n    )\n    self.post = db.posts[post_id]\n    return index()\nresponse._vars=response._caller(new_post)\n'
p7
sS'snapshot'
p8
(dp9
S'exception'
p10
(dp11
S'__hash__'
p12
S"<method-wrapper '__hash__' of exceptions.NameError object>"
p13
sS'__setattr__'
p14
S"<method-wrapper '__setattr__' of exceptions.NameError object>"
p15
sS'__reduce_ex__'
p16
S'<built-in method __reduce_ex__ of exceptions.NameError object>'
p17
sS'__getslice__'
p18
S"<method-wrapper '__getslice__' of exceptions.NameError object>"
p19
sS'__getitem__'
p20
S"<method-wrapper '__getitem__' of exceptions.NameError object>"
p21
sS'__setstate__'
p22
S'<built-in method __setstate__ of exceptions.NameError object>'
p23
sS'__reduce__'
p24
S'<built-in method __reduce__ of exceptions.NameError object>'
p25
sS'__str__'
p26
S"<method-wrapper '__str__' of exceptions.NameError object>"
p27
sS'__format__'
p28
S'<built-in method __format__ of exceptions.NameError object>'
p29
sS'__getattribute__'
p30
S"<method-wrapper '__getattribute__' of exceptions.NameError object>"
p31
sS'__class__'
p32
S"<type 'exceptions.NameError'>"
p33
sS'__unicode__'
p34
S'<built-in method __unicode__ of exceptions.NameError object>'
p35
sS'__delattr__'
p36
S"<method-wrapper '__delattr__' of exceptions.NameError object>"
p37
sS'__subclasshook__'
p38
S'<built-in method __subclasshook__ of type object>'
p39
sS'__repr__'
p40
S"<method-wrapper '__repr__' of exceptions.NameError object>"
p41
sS'args'
p42
S'("global name \'self\' is not defined",)'
p43
sS'__dict__'
p44
S'{}'
p45
sS'__sizeof__'
p46
S'<built-in method __sizeof__ of exceptions.NameError object>'
p47
sS'__doc__'
p48
S"'Name not found globally.'"
p49
sS'__init__'
p50
S"<method-wrapper '__init__' of exceptions.NameError object>"
p51
sS'__new__'
p52
S'<built-in method __new__ of type object>'
p53
ssS'evalue'
p54
S"global name 'self' is not defined"
p55
sS'request'
p56
ccopy_reg
_reconstructor
p57
(cgluon.html
BEAUTIFY
p58
c__builtin__
object
p59
NtRp60
(dp61
S'attributes'
p62
(dp63
sS'components'
p64
(lp65
g57
(cgluon.html
TABLE
p66
g59
NtRp67
(dp68
g62
(dp69
S'level'
p70
I5
ssS'parent'
p71
Nsg64
(lp72
g57
(cgluon.html
TR
p73
g59
NtRp74
(dp75
g62
(dp76
sg71
g67
sg64
(lp77
g57
(cgluon.html
TD
p78
g59
NtRp79
(dp80
g62
(dp81
S'_style'
p82
S'font-weight:bold;vertical-align:top'
p83
ssg71
g74
sg64
(lp84
S'ajax'
p85
asbag57
(g78
g59
NtRp86
(dp87
g62
(dp88
S'_valign'
p89
S'top'
p90
ssg71
g74
sg64
(lp91
S':'
asbag57
(g78
g59
NtRp92
(dp93
g62
(dp94
sg71
g74
sg64
(lp95
g57
(g58
g59
NtRp96
(dp97
g62
(dp98
g70
I5
ssg71
g92
sg64
(lp99
S'False'
p100
asbasbasbag57
(g73
g59
NtRp101
(dp102
g62
(dp103
sg71
g67
sg64
(lp104
g57
(g78
g59
NtRp105
(dp106
g62
(dp107
g82
g83
ssg71
g101
sg64
(lp108
S'application'
p109
asbag57
(g78
g59
NtRp110
(dp111
g62
(dp112
g89
g90
ssg71
g101
sg64
(lp113
S':'
asbag57
(g78
g59
NtRp114
(dp115
g62
(dp116
sg71
g101
sg64
(lp117
g57
(g58
g59
NtRp118
(dp119
g62
(dp120
g70
I5
ssg71
g114
sg64
(lp121
S'vote_up'
p122
asbasbasbag57
(g73
g59
NtRp123
(dp124
g62
(dp125
sg71
g67
sg64
(lp126
g57
(g78
g59
NtRp127
(dp128
g62
(dp129
g82
g83
ssg71
g123
sg64
(lp130
g42
asbag57
(g78
g59
NtRp131
(dp132
g62
(dp133
g89
g90
ssg71
g123
sg64
(lp134
S':'
asbag57
(g78
g59
NtRp135
(dp136
g62
(dp137
sg71
g123
sg64
(lp138
g57
(g58
g59
NtRp139
(dp140
g62
(dp141
g70
I5
ssg71
g135
sg64
(lp142
g57
(g66
g59
NtRp143
(dp144
g62
(dp145
g70
I4
ssg71
Nsg64
(lp146
sbasbasbasbag57
(g73
g59
NtRp147
(dp148
g62
(dp149
sg71
g67
sg64
(lp150
g57
(g78
g59
NtRp151
(dp152
g62
(dp153
g82
g83
ssg71
g147
sg64
(lp154
S'body'
p155
asbag57
(g78
g59
NtRp156
(dp157
g62
(dp158
g89
g90
ssg71
g147
sg64
(lp159
S':'
asbag57
(g78
g59
NtRp160
(dp161
g62
(dp162
sg71
g147
sg64
(lp163
g57
(g58
g59
NtRp164
(dp165
g62
(dp166
g70
I5
ssg71
g160
sg64
(lp167
S"<open file '<fdopen>', mode 'w+b' at 0x0279DC28>"
p168
asbasbasbag57
(g73
g59
NtRp169
(dp170
g62
(dp171
sg71
g67
sg64
(lp172
g57
(g78
g59
NtRp173
(dp174
g62
(dp175
g82
g83
ssg71
g169
sg64
(lp176
S'client'
p177
asbag57
(g78
g59
NtRp178
(dp179
g62
(dp180
g89
g90
ssg71
g169
sg64
(lp181
S':'
asbag57
(g78
g59
NtRp182
(dp183
g62
(dp184
sg71
g169
sg64
(lp185
g57
(g58
g59
NtRp186
(dp187
g62
(dp188
g70
I5
ssg71
g182
sg64
(lp189
S'127.0.0.1'
p190
asbasbasbag57
(g73
g59
NtRp191
(dp192
g62
(dp193
sg71
g67
sg64
(lp194
g57
(g78
g59
NtRp195
(dp196
g62
(dp197
g82
g83
ssg71
g191
sg64
(lp198
S'controller'
p199
asbag57
(g78
g59
NtRp200
(dp201
g62
(dp202
g89
g90
ssg71
g191
sg64
(lp203
S':'
asbag57
(g78
g59
NtRp204
(dp205
g62
(dp206
sg71
g191
sg64
(lp207
g57
(g58
g59
NtRp208
(dp209
g62
(dp210
g70
I5
ssg71
g204
sg64
(lp211
S'default'
p212
asbasbasbag57
(g73
g59
NtRp213
(dp214
g62
(dp215
sg71
g67
sg64
(lp216
g57
(g78
g59
NtRp217
(dp218
g62
(dp219
g82
g83
ssg71
g213
sg64
(lp220
S'cookies'
p221
asbag57
(g78
g59
NtRp222
(dp223
g62
(dp224
g89
g90
ssg71
g213
sg64
(lp225
S':'
asbag57
(g78
g59
NtRp226
(dp227
g62
(dp228
sg71
g213
sg64
(lp229
g57
(g58
g59
NtRp230
(dp231
g62
(dp232
g70
I5
ssg71
g226
sg64
(lp233
g57
(g66
g59
NtRp234
(dp235
g62
(dp236
g70
I4
ssg71
Nsg64
(lp237
g57
(g73
g59
NtRp238
(dp239
g62
(dp240
sg71
g234
sg64
(lp241
g57
(g78
g59
NtRp242
(dp243
g62
(dp244
g82
g83
ssg71
g238
sg64
(lp245
S'session_id_admin'
p246
asbag57
(g78
g59
NtRp247
(dp248
g62
(dp249
g89
g90
ssg71
g238
sg64
(lp250
S':'
asbag57
(g78
g59
NtRp251
(dp252
g62
(dp253
sg71
g238
sg64
(lp254
g57
(g58
g59
NtRp255
(dp256
g62
(dp257
g70
I4
ssg71
g251
sg64
(lp258
g57
(g66
g59
NtRp259
(dp260
g62
(dp261
g70
I3
ssg71
Nsg64
(lp262
g57
(g73
g59
NtRp263
(dp264
g62
(dp265
sg71
g259
sg64
(lp266
g57
(g78
g59
NtRp267
(dp268
g62
(dp269
g82
g83
ssg71
g263
sg64
(lp270
S'comment'
p271
asbag57
(g78
g59
NtRp272
(dp273
g62
(dp274
g89
g90
ssg71
g263
sg64
(lp275
S':'
asbag57
(g78
g59
NtRp276
(dp277
g62
(dp278
sg71
g263
sg64
(lp279
g57
(g58
g59
NtRp280
(dp281
g62
(dp282
g70
I3
ssg71
g276
sg64
(lp283
S''
asbasbasbag57
(g73
g59
NtRp284
(dp285
g62
(dp286
sg71
g259
sg64
(lp287
g57
(g78
g59
NtRp288
(dp289
g62
(dp290
g82
g83
ssg71
g284
sg64
(lp291
S'domain'
p292
asbag57
(g78
g59
NtRp293
(dp294
g62
(dp295
g89
g90
ssg71
g284
sg64
(lp296
S':'
asbag57
(g78
g59
NtRp297
(dp298
g62
(dp299
sg71
g284
sg64
(lp300
g57
(g58
g59
NtRp301
(dp302
g62
(dp303
g70
I3
ssg71
g297
sg64
(lp304
S''
asbasbasbag57
(g73
g59
NtRp305
(dp306
g62
(dp307
sg71
g259
sg64
(lp308
g57
(g78
g59
NtRp309
(dp310
g62
(dp311
g82
g83
ssg71
g305
sg64
(lp312
S'expires'
p313
asbag57
(g78
g59
NtRp314
(dp315
g62
(dp316
g89
g90
ssg71
g305
sg64
(lp317
S':'
asbag57
(g78
g59
NtRp318
(dp319
g62
(dp320
sg71
g305
sg64
(lp321
g57
(g58
g59
NtRp322
(dp323
g62
(dp324
g70
I3
ssg71
g318
sg64
(lp325
S''
asbasbasbag57
(g73
g59
NtRp326
(dp327
g62
(dp328
sg71
g259
sg64
(lp329
g57
(g78
g59
NtRp330
(dp331
g62
(dp332
g82
g83
ssg71
g326
sg64
(lp333
S'httponly'
p334
asbag57
(g78
g59
NtRp335
(dp336
g62
(dp337
g89
g90
ssg71
g326
sg64
(lp338
S':'
asbag57
(g78
g59
NtRp339
(dp340
g62
(dp341
sg71
g326
sg64
(lp342
g57
(g58
g59
NtRp343
(dp344
g62
(dp345
g70
I3
ssg71
g339
sg64
(lp346
S''
asbasbasbag57
(g73
g59
NtRp347
(dp348
g62
(dp349
sg71
g259
sg64
(lp350
g57
(g78
g59
NtRp351
(dp352
g62
(dp353
g82
g83
ssg71
g347
sg64
(lp354
S'max-age'
p355
asbag57
(g78
g59
NtRp356
(dp357
g62
(dp358
g89
g90
ssg71
g347
sg64
(lp359
S':'
asbag57
(g78
g59
NtRp360
(dp361
g62
(dp362
sg71
g347
sg64
(lp363
g57
(g58
g59
NtRp364
(dp365
g62
(dp366
g70
I3
ssg71
g360
sg64
(lp367
S''
asbasbasbag57
(g73
g59
NtRp368
(dp369
g62
(dp370
sg71
g259
sg64
(lp371
g57
(g78
g59
NtRp372
(dp373
g62
(dp374
g82
g83
ssg71
g368
sg64
(lp375
S'path'
p376
asbag57
(g78
g59
NtRp377
(dp378
g62
(dp379
g89
g90
ssg71
g368
sg64
(lp380
S':'
asbag57
(g78
g59
NtRp381
(dp382
g62
(dp383
sg71
g368
sg64
(lp384
g57
(g58
g59
NtRp385
(dp386
g62
(dp387
g70
I3
ssg71
g381
sg64
(lp388
S''
asbasbasbag57
(g73
g59
NtRp389
(dp390
g62
(dp391
sg71
g259
sg64
(lp392
g57
(g78
g59
NtRp393
(dp394
g62
(dp395
g82
g83
ssg71
g389
sg64
(lp396
S'secure'
p397
asbag57
(g78
g59
NtRp398
(dp399
g62
(dp400
g89
g90
ssg71
g389
sg64
(lp401
S':'
asbag57
(g78
g59
NtRp402
(dp403
g62
(dp404
sg71
g389
sg64
(lp405
g57
(g58
g59
NtRp406
(dp407
g62
(dp408
g70
I3
ssg71
g402
sg64
(lp409
S''
asbasbasbag57
(g73
g59
NtRp410
(dp411
g62
(dp412
sg71
g259
sg64
(lp413
g57
(g78
g59
NtRp414
(dp415
g62
(dp416
g82
g83
ssg71
g410
sg64
(lp417
S'version'
p418
asbag57
(g78
g59
NtRp419
(dp420
g62
(dp421
g89
g90
ssg71
g410
sg64
(lp422
S':'
asbag57
(g78
g59
NtRp423
(dp424
g62
(dp425
sg71
g410
sg64
(lp426
g57
(g58
g59
NtRp427
(dp428
g62
(dp429
g70
I3
ssg71
g423
sg64
(lp430
S''
asbasbasbasbasbasbasbag57
(g73
g59
NtRp431
(dp432
g62
(dp433
sg71
g234
sg64
(lp434
g57
(g78
g59
NtRp435
(dp436
g62
(dp437
g82
g83
ssg71
g431
sg64
(lp438
S'session_id_vote_up'
p439
asbag57
(g78
g59
NtRp440
(dp441
g62
(dp442
g89
g90
ssg71
g431
sg64
(lp443
S':'
asbag57
(g78
g59
NtRp444
(dp445
g62
(dp446
sg71
g431
sg64
(lp447
g57
(g58
g59
NtRp448
(dp449
g62
(dp450
g70
I4
ssg71
g444
sg64
(lp451
g57
(g66
g59
NtRp452
(dp453
g62
(dp454
g70
I3
ssg71
Nsg64
(lp455
g57
(g73
g59
NtRp456
(dp457
g62
(dp458
sg71
g452
sg64
(lp459
g57
(g78
g59
NtRp460
(dp461
g62
(dp462
g82
g83
ssg71
g456
sg64
(lp463
g271
asbag57
(g78
g59
NtRp464
(dp465
g62
(dp466
g89
g90
ssg71
g456
sg64
(lp467
S':'
asbag57
(g78
g59
NtRp468
(dp469
g62
(dp470
sg71
g456
sg64
(lp471
g57
(g58
g59
NtRp472
(dp473
g62
(dp474
g70
I3
ssg71
g468
sg64
(lp475
S''
asbasbasbag57
(g73
g59
NtRp476
(dp477
g62
(dp478
sg71
g452
sg64
(lp479
g57
(g78
g59
NtRp480
(dp481
g62
(dp482
g82
g83
ssg71
g476
sg64
(lp483
g292
asbag57
(g78
g59
NtRp484
(dp485
g62
(dp486
g89
g90
ssg71
g476
sg64
(lp487
S':'
asbag57
(g78
g59
NtRp488
(dp489
g62
(dp490
sg71
g476
sg64
(lp491
g57
(g58
g59
NtRp492
(dp493
g62
(dp494
g70
I3
ssg71
g488
sg64
(lp495
S''
asbasbasbag57
(g73
g59
NtRp496
(dp497
g62
(dp498
sg71
g452
sg64
(lp499
g57
(g78
g59
NtRp500
(dp501
g62
(dp502
g82
g83
ssg71
g496
sg64
(lp503
g313
asbag57
(g78
g59
NtRp504
(dp505
g62
(dp506
g89
g90
ssg71
g496
sg64
(lp507
S':'
asbag57
(g78
g59
NtRp508
(dp509
g62
(dp510
sg71
g496
sg64
(lp511
g57
(g58
g59
NtRp512
(dp513
g62
(dp514
g70
I3
ssg71
g508
sg64
(lp515
S''
asbasbasbag57
(g73
g59
NtRp516
(dp517
g62
(dp518
sg71
g452
sg64
(lp519
g57
(g78
g59
NtRp520
(dp521
g62
(dp522
g82
g83
ssg71
g516
sg64
(lp523
g334
asbag57
(g78
g59
NtRp524
(dp525
g62
(dp526
g89
g90
ssg71
g516
sg64
(lp527
S':'
asbag57
(g78
g59
NtRp528
(dp529
g62
(dp530
sg71
g516
sg64
(lp531
g57
(g58
g59
NtRp532
(dp533
g62
(dp534
g70
I3
ssg71
g528
sg64
(lp535
S''
asbasbasbag57
(g73
g59
NtRp536
(dp537
g62
(dp538
sg71
g452
sg64
(lp539
g57
(g78
g59
NtRp540
(dp541
g62
(dp542
g82
g83
ssg71
g536
sg64
(lp543
g355
asbag57
(g78
g59
NtRp544
(dp545
g62
(dp546
g89
g90
ssg71
g536
sg64
(lp547
S':'
asbag57
(g78
g59
NtRp548
(dp549
g62
(dp550
sg71
g536
sg64
(lp551
g57
(g58
g59
NtRp552
(dp553
g62
(dp554
g70
I3
ssg71
g548
sg64
(lp555
S''
asbasbasbag57
(g73
g59
NtRp556
(dp557
g62
(dp558
sg71
g452
sg64
(lp559
g57
(g78
g59
NtRp560
(dp561
g62
(dp562
g82
g83
ssg71
g556
sg64
(lp563
g376
asbag57
(g78
g59
NtRp564
(dp565
g62
(dp566
g89
g90
ssg71
g556
sg64
(lp567
S':'
asbag57
(g78
g59
NtRp568
(dp569
g62
(dp570
sg71
g556
sg64
(lp571
g57
(g58
g59
NtRp572
(dp573
g62
(dp574
g70
I3
ssg71
g568
sg64
(lp575
S''
asbasbasbag57
(g73
g59
NtRp576
(dp577
g62
(dp578
sg71
g452
sg64
(lp579
g57
(g78
g59
NtRp580
(dp581
g62
(dp582
g82
g83
ssg71
g576
sg64
(lp583
g397
asbag57
(g78
g59
NtRp584
(dp585
g62
(dp586
g89
g90
ssg71
g576
sg64
(lp587
S':'
asbag57
(g78
g59
NtRp588
(dp589
g62
(dp590
sg71
g576
sg64
(lp591
g57
(g58
g59
NtRp592
(dp593
g62
(dp594
g70
I3
ssg71
g588
sg64
(lp595
S''
asbasbasbag57
(g73
g59
NtRp596
(dp597
g62
(dp598
sg71
g452
sg64
(lp599
g57
(g78
g59
NtRp600
(dp601
g62
(dp602
g82
g83
ssg71
g596
sg64
(lp603
g418
asbag57
(g78
g59
NtRp604
(dp605
g62
(dp606
g89
g90
ssg71
g596
sg64
(lp607
S':'
asbag57
(g78
g59
NtRp608
(dp609
g62
(dp610
sg71
g596
sg64
(lp611
g57
(g58
g59
NtRp612
(dp613
g62
(dp614
g70
I3
ssg71
g608
sg64
(lp615
S''
asbasbasbasbasbasbasbag57
(g73
g59
NtRp616
(dp617
g62
(dp618
sg71
g234
sg64
(lp619
g57
(g78
g59
NtRp620
(dp621
g62
(dp622
g82
g83
ssg71
g616
sg64
(lp623
S'session_id_welcome'
p624
asbag57
(g78
g59
NtRp625
(dp626
g62
(dp627
g89
g90
ssg71
g616
sg64
(lp628
S':'
asbag57
(g78
g59
NtRp629
(dp630
g62
(dp631
sg71
g616
sg64
(lp632
g57
(g58
g59
NtRp633
(dp634
g62
(dp635
g70
I4
ssg71
g629
sg64
(lp636
g57
(g66
g59
NtRp637
(dp638
g62
(dp639
g70
I3
ssg71
Nsg64
(lp640
g57
(g73
g59
NtRp641
(dp642
g62
(dp643
sg71
g637
sg64
(lp644
g57
(g78
g59
NtRp645
(dp646
g62
(dp647
g82
g83
ssg71
g641
sg64
(lp648
g271
asbag57
(g78
g59
NtRp649
(dp650
g62
(dp651
g89
g90
ssg71
g641
sg64
(lp652
S':'
asbag57
(g78
g59
NtRp653
(dp654
g62
(dp655
sg71
g641
sg64
(lp656
g57
(g58
g59
NtRp657
(dp658
g62
(dp659
g70
I3
ssg71
g653
sg64
(lp660
S''
asbasbasbag57
(g73
g59
NtRp661
(dp662
g62
(dp663
sg71
g637
sg64
(lp664
g57
(g78
g59
NtRp665
(dp666
g62
(dp667
g82
g83
ssg71
g661
sg64
(lp668
g292
asbag57
(g78
g59
NtRp669
(dp670
g62
(dp671
g89
g90
ssg71
g661
sg64
(lp672
S':'
asbag57
(g78
g59
NtRp673
(dp674
g62
(dp675
sg71
g661
sg64
(lp676
g57
(g58
g59
NtRp677
(dp678
g62
(dp679
g70
I3
ssg71
g673
sg64
(lp680
S''
asbasbasbag57
(g73
g59
NtRp681
(dp682
g62
(dp683
sg71
g637
sg64
(lp684
g57
(g78
g59
NtRp685
(dp686
g62
(dp687
g82
g83
ssg71
g681
sg64
(lp688
g313
asbag57
(g78
g59
NtRp689
(dp690
g62
(dp691
g89
g90
ssg71
g681
sg64
(lp692
S':'
asbag57
(g78
g59
NtRp693
(dp694
g62
(dp695
sg71
g681
sg64
(lp696
g57
(g58
g59
NtRp697
(dp698
g62
(dp699
g70
I3
ssg71
g693
sg64
(lp700
S''
asbasbasbag57
(g73
g59
NtRp701
(dp702
g62
(dp703
sg71
g637
sg64
(lp704
g57
(g78
g59
NtRp705
(dp706
g62
(dp707
g82
g83
ssg71
g701
sg64
(lp708
g334
asbag57
(g78
g59
NtRp709
(dp710
g62
(dp711
g89
g90
ssg71
g701
sg64
(lp712
S':'
asbag57
(g78
g59
NtRp713
(dp714
g62
(dp715
sg71
g701
sg64
(lp716
g57
(g58
g59
NtRp717
(dp718
g62
(dp719
g70
I3
ssg71
g713
sg64
(lp720
S''
asbasbasbag57
(g73
g59
NtRp721
(dp722
g62
(dp723
sg71
g637
sg64
(lp724
g57
(g78
g59
NtRp725
(dp726
g62
(dp727
g82
g83
ssg71
g721
sg64
(lp728
g355
asbag57
(g78
g59
NtRp729
(dp730
g62
(dp731
g89
g90
ssg71
g721
sg64
(lp732
S':'
asbag57
(g78
g59
NtRp733
(dp734
g62
(dp735
sg71
g721
sg64
(lp736
g57
(g58
g59
NtRp737
(dp738
g62
(dp739
g70
I3
ssg71
g733
sg64
(lp740
S''
asbasbasbag57
(g73
g59
NtRp741
(dp742
g62
(dp743
sg71
g637
sg64
(lp744
g57
(g78
g59
NtRp745
(dp746
g62
(dp747
g82
g83
ssg71
g741
sg64
(lp748
g376
asbag57
(g78
g59
NtRp749
(dp750
g62
(dp751
g89
g90
ssg71
g741
sg64
(lp752
S':'
asbag57
(g78
g59
NtRp753
(dp754
g62
(dp755
sg71
g741
sg64
(lp756
g57
(g58
g59
NtRp757
(dp758
g62
(dp759
g70
I3
ssg71
g753
sg64
(lp760
S''
asbasbasbag57
(g73
g59
NtRp761
(dp762
g62
(dp763
sg71
g637
sg64
(lp764
g57
(g78
g59
NtRp765
(dp766
g62
(dp767
g82
g83
ssg71
g761
sg64
(lp768
g397
asbag57
(g78
g59
NtRp769
(dp770
g62
(dp771
g89
g90
ssg71
g761
sg64
(lp772
S':'
asbag57
(g78
g59
NtRp773
(dp774
g62
(dp775
sg71
g761
sg64
(lp776
g57
(g58
g59
NtRp777
(dp778
g62
(dp779
g70
I3
ssg71
g773
sg64
(lp780
S''
asbasbasbag57
(g73
g59
NtRp781
(dp782
g62
(dp783
sg71
g637
sg64
(lp784
g57
(g78
g59
NtRp785
(dp786
g62
(dp787
g82
g83
ssg71
g781
sg64
(lp788
g418
asbag57
(g78
g59
NtRp789
(dp790
g62
(dp791
g89
g90
ssg71
g781
sg64
(lp792
S':'
asbag57
(g78
g59
NtRp793
(dp794
g62
(dp795
sg71
g781
sg64
(lp796
g57
(g58
g59
NtRp797
(dp798
g62
(dp799
g70
I3
ssg71
g793
sg64
(lp800
S''
asbasbasbasbasbasbasbasbasbasbasbag57
(g73
g59
NtRp801
(dp802
g62
(dp803
sg71
g67
sg64
(lp804
g57
(g78
g59
NtRp805
(dp806
g62
(dp807
g82
g83
ssg71
g801
sg64
(lp808
S'env'
p809
asbag57
(g78
g59
NtRp810
(dp811
g62
(dp812
g89
g90
ssg71
g801
sg64
(lp813
S':'
asbag57
(g78
g59
NtRp814
(dp815
g62
(dp816
sg71
g801
sg64
(lp817
g57
(g58
g59
NtRp818
(dp819
g62
(dp820
g70
I5
ssg71
g814
sg64
(lp821
g57
(g66
g59
NtRp822
(dp823
g62
(dp824
g70
I4
ssg71
Nsg64
(lp825
g57
(g73
g59
NtRp826
(dp827
g62
(dp828
sg71
g822
sg64
(lp829
g57
(g78
g59
NtRp830
(dp831
g62
(dp832
g82
g83
ssg71
g826
sg64
(lp833
S'app_folders'
p834
asbag57
(g78
g59
NtRp835
(dp836
g62
(dp837
g89
g90
ssg71
g826
sg64
(lp838
S':'
asbag57
(g78
g59
NtRp839
(dp840
g62
(dp841
sg71
g826
sg64
(lp842
g57
(g58
g59
NtRp843
(dp844
g62
(dp845
g70
I4
ssg71
g839
sg64
(lp846
S"set(['E:\\\\Programming\\\\Python\\\\web2py\\\\applications\\\\vote_up\\\\', 'E:\\\\Programming\\\\Python\\\\web2py\\\\applications\\\\welcome\\\\', 'E:\\\\Programming\\\\Python\\\\web2py\\\\applications\\\\admin\\\\'])"
p847
asbasbasbag57
(g73
g59
NtRp848
(dp849
g62
(dp850
sg71
g822
sg64
(lp851
g57
(g78
g59
NtRp852
(dp853
g62
(dp854
g82
g83
ssg71
g848
sg64
(lp855
S'applications_parent'
p856
asbag57
(g78
g59
NtRp857
(dp858
g62
(dp859
g89
g90
ssg71
g848
sg64
(lp860
S':'
asbag57
(g78
g59
NtRp861
(dp862
g62
(dp863
sg71
g848
sg64
(lp864
g57
(g58
g59
NtRp865
(dp866
g62
(dp867
g70
I4
ssg71
g861
sg64
(lp868
S'E:\\Programming\\Python\\web2py'
p869
asbasbasbag57
(g73
g59
NtRp870
(dp871
g62
(dp872
sg71
g822
sg64
(lp873
g57
(g78
g59
NtRp874
(dp875
g62
(dp876
g82
g83
ssg71
g870
sg64
(lp877
S'cmd_args'
p878
asbag57
(g78
g59
NtRp879
(dp880
g62
(dp881
g89
g90
ssg71
g870
sg64
(lp882
S':'
asbag57
(g78
g59
NtRp883
(dp884
g62
(dp885
sg71
g870
sg64
(lp886
g57
(g58
g59
NtRp887
(dp888
g62
(dp889
g70
I4
ssg71
g883
sg64
(lp890
g57
(g66
g59
NtRp891
(dp892
g62
(dp893
g70
I3
ssg71
Nsg64
(lp894
sbasbasbasbag57
(g73
g59
NtRp895
(dp896
g62
(dp897
sg71
g822
sg64
(lp898
g57
(g78
g59
NtRp899
(dp900
g62
(dp901
g82
g83
ssg71
g895
sg64
(lp902
S'cmd_options'
p903
asbag57
(g78
g59
NtRp904
(dp905
g62
(dp906
g89
g90
ssg71
g895
sg64
(lp907
S':'
asbag57
(g78
g59
NtRp908
(dp909
g62
(dp910
sg71
g895
sg64
(lp911
g57
(g58
g59
NtRp912
(dp913
g62
(dp914
g70
I4
ssg71
g908
sg64
(lp915
S"<Values at 0x246e0d0: {'verbose': False, 'ip': '127.0.0.1', 'shutdown_timeout': 5, 'taskbar': False, 'nocron': False, 'pid_filename': 'httpserver.pid', 'maxthreads': None, 'softcron': False, 'server_name': '1901200822091P', 'bpython': False, 'nogui': False, 'port': 8000, 'extcron': False, 'debuglevel': 30, 'test': None, 'folder': 'E:\\\\Programming\\\\Python\\\\web2py', 'config': '', 'import_models': False, 'winservice': '', 'shell': None, 'run': '', 'log_filename': 'httpserver.log', 'args': [''], 'socket_timeout': 1, 'ssl_ca_certificate': None, 'scheduler': None, 'profiler_filename': None, 'ssl_private_key': '', 'password': '<ask>', 'request_queue_size': 5, 'ssl_certificate': '', 'cronjob': False, 'numthreads': None, 'quiet': False, 'interfaces': None, 'minthreads': None, 'timeout': 10, 'plain': False, 'nobanner': False}>"
p916
asbasbasbag57
(g73
g59
NtRp917
(dp918
g62
(dp919
sg71
g822
sg64
(lp920
g57
(g78
g59
NtRp921
(dp922
g62
(dp923
g82
g83
ssg71
g917
sg64
(lp924
S'content_length'
p925
asbag57
(g78
g59
NtRp926
(dp927
g62
(dp928
g89
g90
ssg71
g917
sg64
(lp929
S':'
asbag57
(g78
g59
NtRp930
(dp931
g62
(dp932
sg71
g917
sg64
(lp933
g57
(g58
g59
NtRp934
(dp935
g62
(dp936
g70
I4
ssg71
g930
sg64
(lp937
S'28'
p938
asbasbasbag57
(g73
g59
NtRp939
(dp940
g62
(dp941
sg71
g822
sg64
(lp942
g57
(g78
g59
NtRp943
(dp944
g62
(dp945
g82
g83
ssg71
g939
sg64
(lp946
S'content_type'
p947
asbag57
(g78
g59
NtRp948
(dp949
g62
(dp950
g89
g90
ssg71
g939
sg64
(lp951
S':'
asbag57
(g78
g59
NtRp952
(dp953
g62
(dp954
sg71
g939
sg64
(lp955
g57
(g58
g59
NtRp956
(dp957
g62
(dp958
g70
I4
ssg71
g952
sg64
(lp959
S'application/x-www-form-urlencoded'
p960
asbasbasbag57
(g73
g59
NtRp961
(dp962
g62
(dp963
sg71
g822
sg64
(lp964
g57
(g78
g59
NtRp965
(dp966
g62
(dp967
g82
g83
ssg71
g961
sg64
(lp968
S'db_sessions'
p969
asbag57
(g78
g59
NtRp970
(dp971
g62
(dp972
g89
g90
ssg71
g961
sg64
(lp973
S':'
asbag57
(g78
g59
NtRp974
(dp975
g62
(dp976
sg71
g961
sg64
(lp977
g57
(g58
g59
NtRp978
(dp979
g62
(dp980
g70
I4
ssg71
g974
sg64
(lp981
S'set([])'
p982
asbasbasbag57
(g73
g59
NtRp983
(dp984
g62
(dp985
sg71
g822
sg64
(lp986
g57
(g78
g59
NtRp987
(dp988
g62
(dp989
g82
g83
ssg71
g983
sg64
(lp990
S'debugging'
p991
asbag57
(g78
g59
NtRp992
(dp993
g62
(dp994
g89
g90
ssg71
g983
sg64
(lp995
S':'
asbag57
(g78
g59
NtRp996
(dp997
g62
(dp998
sg71
g983
sg64
(lp999
g57
(g58
g59
NtRp1000
(dp1001
g62
(dp1002
g70
I4
ssg71
g996
sg64
(lp1003
g100
asbasbasbag57
(g73
g59
NtRp1004
(dp1005
g62
(dp1006
sg71
g822
sg64
(lp1007
g57
(g78
g59
NtRp1008
(dp1009
g62
(dp1010
g82
g83
ssg71
g1004
sg64
(lp1011
S'gluon_parent'
p1012
asbag57
(g78
g59
NtRp1013
(dp1014
g62
(dp1015
g89
g90
ssg71
g1004
sg64
(lp1016
S':'
asbag57
(g78
g59
NtRp1017
(dp1018
g62
(dp1019
sg71
g1004
sg64
(lp1020
g57
(g58
g59
NtRp1021
(dp1022
g62
(dp1023
g70
I4
ssg71
g1017
sg64
(lp1024
S'E:\\Programming\\Python\\web2py'
p1025
asbasbasbag57
(g73
g59
NtRp1026
(dp1027
g62
(dp1028
sg71
g822
sg64
(lp1029
g57
(g78
g59
NtRp1030
(dp1031
g62
(dp1032
g82
g83
ssg71
g1026
sg64
(lp1033
S'http_accept'
p1034
asbag57
(g78
g59
NtRp1035
(dp1036
g62
(dp1037
g89
g90
ssg71
g1026
sg64
(lp1038
S':'
asbag57
(g78
g59
NtRp1039
(dp1040
g62
(dp1041
sg71
g1026
sg64
(lp1042
g57
(g58
g59
NtRp1043
(dp1044
g62
(dp1045
g70
I4
ssg71
g1039
sg64
(lp1046
S'text/html,application/xhtml+xml,application/xml;q=0.9,*/*;q=0.8'
p1047
asbasbasbag57
(g73
g59
NtRp1048
(dp1049
g62
(dp1050
sg71
g822
sg64
(lp1051
g57
(g78
g59
NtRp1052
(dp1053
g62
(dp1054
g82
g83
ssg71
g1048
sg64
(lp1055
S'http_accept_charset'
p1056
asbag57
(g78
g59
NtRp1057
(dp1058
g62
(dp1059
g89
g90
ssg71
g1048
sg64
(lp1060
S':'
asbag57
(g78
g59
NtRp1061
(dp1062
g62
(dp1063
sg71
g1048
sg64
(lp1064
g57
(g58
g59
NtRp1065
(dp1066
g62
(dp1067
g70
I4
ssg71
g1061
sg64
(lp1068
S'ISO-8859-1,utf-8;q=0.7,*;q=0.3'
p1069
asbasbasbag57
(g73
g59
NtRp1070
(dp1071
g62
(dp1072
sg71
g822
sg64
(lp1073
g57
(g78
g59
NtRp1074
(dp1075
g62
(dp1076
g82
g83
ssg71
g1070
sg64
(lp1077
S'http_accept_encoding'
p1078
asbag57
(g78
g59
NtRp1079
(dp1080
g62
(dp1081
g89
g90
ssg71
g1070
sg64
(lp1082
S':'
asbag57
(g78
g59
NtRp1083
(dp1084
g62
(dp1085
sg71
g1070
sg64
(lp1086
g57
(g58
g59
NtRp1087
(dp1088
g62
(dp1089
g70
I4
ssg71
g1083
sg64
(lp1090
S'gzip,deflate,sdch'
p1091
asbasbasbag57
(g73
g59
NtRp1092
(dp1093
g62
(dp1094
sg71
g822
sg64
(lp1095
g57
(g78
g59
NtRp1096
(dp1097
g62
(dp1098
g82
g83
ssg71
g1092
sg64
(lp1099
S'http_accept_language'
p1100
asbag57
(g78
g59
NtRp1101
(dp1102
g62
(dp1103
g89
g90
ssg71
g1092
sg64
(lp1104
S':'
asbag57
(g78
g59
NtRp1105
(dp1106
g62
(dp1107
sg71
g1092
sg64
(lp1108
g57
(g58
g59
NtRp1109
(dp1110
g62
(dp1111
g70
I4
ssg71
g1105
sg64
(lp1112
S'en-US,en;q=0.8'
p1113
asbasbasbag57
(g73
g59
NtRp1114
(dp1115
g62
(dp1116
sg71
g822
sg64
(lp1117
g57
(g78
g59
NtRp1118
(dp1119
g62
(dp1120
g82
g83
ssg71
g1114
sg64
(lp1121
S'http_cache_control'
p1122
asbag57
(g78
g59
NtRp1123
(dp1124
g62
(dp1125
g89
g90
ssg71
g1114
sg64
(lp1126
S':'
asbag57
(g78
g59
NtRp1127
(dp1128
g62
(dp1129
sg71
g1114
sg64
(lp1130
g57
(g58
g59
NtRp1131
(dp1132
g62
(dp1133
g70
I4
ssg71
g1127
sg64
(lp1134
S'max-age=0'
p1135
asbasbasbag57
(g73
g59
NtRp1136
(dp1137
g62
(dp1138
sg71
g822
sg64
(lp1139
g57
(g78
g59
NtRp1140
(dp1141
g62
(dp1142
g82
g83
ssg71
g1136
sg64
(lp1143
S'http_connection'
p1144
asbag57
(g78
g59
NtRp1145
(dp1146
g62
(dp1147
g89
g90
ssg71
g1136
sg64
(lp1148
S':'
asbag57
(g78
g59
NtRp1149
(dp1150
g62
(dp1151
sg71
g1136
sg64
(lp1152
g57
(g58
g59
NtRp1153
(dp1154
g62
(dp1155
g70
I4
ssg71
g1149
sg64
(lp1156
S'keep-alive'
p1157
asbasbasbag57
(g73
g59
NtRp1158
(dp1159
g62
(dp1160
sg71
g822
sg64
(lp1161
g57
(g78
g59
NtRp1162
(dp1163
g62
(dp1164
g82
g83
ssg71
g1158
sg64
(lp1165
S'http_content_length'
p1166
asbag57
(g78
g59
NtRp1167
(dp1168
g62
(dp1169
g89
g90
ssg71
g1158
sg64
(lp1170
S':'
asbag57
(g78
g59
NtRp1171
(dp1172
g62
(dp1173
sg71
g1158
sg64
(lp1174
g57
(g58
g59
NtRp1175
(dp1176
g62
(dp1177
g70
I4
ssg71
g1171
sg64
(lp1178
g938
asbasbasbag57
(g73
g59
NtRp1179
(dp1180
g62
(dp1181
sg71
g822
sg64
(lp1182
g57
(g78
g59
NtRp1183
(dp1184
g62
(dp1185
g82
g83
ssg71
g1179
sg64
(lp1186
S'http_content_type'
p1187
asbag57
(g78
g59
NtRp1188
(dp1189
g62
(dp1190
g89
g90
ssg71
g1179
sg64
(lp1191
S':'
asbag57
(g78
g59
NtRp1192
(dp1193
g62
(dp1194
sg71
g1179
sg64
(lp1195
g57
(g58
g59
NtRp1196
(dp1197
g62
(dp1198
g70
I4
ssg71
g1192
sg64
(lp1199
g960
asbasbasbag57
(g73
g59
NtRp1200
(dp1201
g62
(dp1202
sg71
g822
sg64
(lp1203
g57
(g78
g59
NtRp1204
(dp1205
g62
(dp1206
g82
g83
ssg71
g1200
sg64
(lp1207
S'http_cookie'
p1208
asbag57
(g78
g59
NtRp1209
(dp1210
g62
(dp1211
g89
g90
ssg71
g1200
sg64
(lp1212
S':'
asbag57
(g78
g59
NtRp1213
(dp1214
g62
(dp1215
sg71
g1200
sg64
(lp1216
g57
(g58
g59
NtRp1217
(dp1218
g62
(dp1219
g70
I4
ssg71
g1213
sg64
(lp1220
S'session_id_welcome=127.0.0.1-9eb32487-b094-4403-b038-57f4e2f17b10; session_id_admin=127.0.0.1-17596801-cb57-4080-9f68-6afa54836d9a; session_id_vote_up=127.0.0.1-d12d677e-ab2a-4d9b-ac37-b12b00fcae56'
p1221
asbasbasbag57
(g73
g59
NtRp1222
(dp1223
g62
(dp1224
sg71
g822
sg64
(lp1225
g57
(g78
g59
NtRp1226
(dp1227
g62
(dp1228
g82
g83
ssg71
g1222
sg64
(lp1229
S'http_host'
p1230
asbag57
(g78
g59
NtRp1231
(dp1232
g62
(dp1233
g89
g90
ssg71
g1222
sg64
(lp1234
S':'
asbag57
(g78
g59
NtRp1235
(dp1236
g62
(dp1237
sg71
g1222
sg64
(lp1238
g57
(g58
g59
NtRp1239
(dp1240
g62
(dp1241
g70
I4
ssg71
g1235
sg64
(lp1242
S'127.0.0.1:8000'
p1243
asbasbasbag57
(g73
g59
NtRp1244
(dp1245
g62
(dp1246
sg71
g822
sg64
(lp1247
g57
(g78
g59
NtRp1248
(dp1249
g62
(dp1250
g82
g83
ssg71
g1244
sg64
(lp1251
S'http_origin'
p1252
asbag57
(g78
g59
NtRp1253
(dp1254
g62
(dp1255
g89
g90
ssg71
g1244
sg64
(lp1256
S':'
asbag57
(g78
g59
NtRp1257
(dp1258
g62
(dp1259
sg71
g1244
sg64
(lp1260
g57
(g58
g59
NtRp1261
(dp1262
g62
(dp1263
g70
I4
ssg71
g1257
sg64
(lp1264
S'http://127.0.0.1:8000'
p1265
asbasbasbag57
(g73
g59
NtRp1266
(dp1267
g62
(dp1268
sg71
g822
sg64
(lp1269
g57
(g78
g59
NtRp1270
(dp1271
g62
(dp1272
g82
g83
ssg71
g1266
sg64
(lp1273
S'http_referer'
p1274
asbag57
(g78
g59
NtRp1275
(dp1276
g62
(dp1277
g89
g90
ssg71
g1266
sg64
(lp1278
S':'
asbag57
(g78
g59
NtRp1279
(dp1280
g62
(dp1281
sg71
g1266
sg64
(lp1282
g57
(g58
g59
NtRp1283
(dp1284
g62
(dp1285
g70
I4
ssg71
g1279
sg64
(lp1286
S'http://127.0.0.1:8000/vote_up/default/index'
p1287
asbasbasbag57
(g73
g59
NtRp1288
(dp1289
g62
(dp1290
sg71
g822
sg64
(lp1291
g57
(g78
g59
NtRp1292
(dp1293
g62
(dp1294
g82
g83
ssg71
g1288
sg64
(lp1295
S'http_user_agent'
p1296
asbag57
(g78
g59
NtRp1297
(dp1298
g62
(dp1299
g89
g90
ssg71
g1288
sg64
(lp1300
S':'
asbag57
(g78
g59
NtRp1301
(dp1302
g62
(dp1303
sg71
g1288
sg64
(lp1304
g57
(g58
g59
NtRp1305
(dp1306
g62
(dp1307
g70
I4
ssg71
g1301
sg64
(lp1308
S'Mozilla/5.0 (Windows NT 6.1) AppleWebKit/535.1 (KHTML, like Gecko) RockMelt/0.9.72.698 Chrome/14.0.835.202 Safari/535.1'
p1309
asbasbasbag57
(g73
g59
NtRp1310
(dp1311
g62
(dp1312
sg71
g822
sg64
(lp1313
g57
(g78
g59
NtRp1314
(dp1315
g62
(dp1316
g82
g83
ssg71
g1310
sg64
(lp1317
S'is_jython'
p1318
asbag57
(g78
g59
NtRp1319
(dp1320
g62
(dp1321
g89
g90
ssg71
g1310
sg64
(lp1322
S':'
asbag57
(g78
g59
NtRp1323
(dp1324
g62
(dp1325
sg71
g1310
sg64
(lp1326
g57
(g58
g59
NtRp1327
(dp1328
g62
(dp1329
g70
I4
ssg71
g1323
sg64
(lp1330
g100
asbasbasbag57
(g73
g59
NtRp1331
(dp1332
g62
(dp1333
sg71
g822
sg64
(lp1334
g57
(g78
g59
NtRp1335
(dp1336
g62
(dp1337
g82
g83
ssg71
g1331
sg64
(lp1338
S'is_pypy'
p1339
asbag57
(g78
g59
NtRp1340
(dp1341
g62
(dp1342
g89
g90
ssg71
g1331
sg64
(lp1343
S':'
asbag57
(g78
g59
NtRp1344
(dp1345
g62
(dp1346
sg71
g1331
sg64
(lp1347
g57
(g58
g59
NtRp1348
(dp1349
g62
(dp1350
g70
I4
ssg71
g1344
sg64
(lp1351
g100
asbasbasbag57
(g73
g59
NtRp1352
(dp1353
g62
(dp1354
sg71
g822
sg64
(lp1355
g57
(g78
g59
NtRp1356
(dp1357
g62
(dp1358
g82
g83
ssg71
g1352
sg64
(lp1359
S'path_info'
p1360
asbag57
(g78
g59
NtRp1361
(dp1362
g62
(dp1363
g89
g90
ssg71
g1352
sg64
(lp1364
S':'
asbag57
(g78
g59
NtRp1365
(dp1366
g62
(dp1367
sg71
g1352
sg64
(lp1368
g57
(g58
g59
NtRp1369
(dp1370
g62
(dp1371
g70
I4
ssg71
g1365
sg64
(lp1372
S'/vote_up/default/new_post'
p1373
asbasbasbag57
(g73
g59
NtRp1374
(dp1375
g62
(dp1376
sg71
g822
sg64
(lp1377
g57
(g78
g59
NtRp1378
(dp1379
g62
(dp1380
g82
g83
ssg71
g1374
sg64
(lp1381
S'query_string'
p1382
asbag57
(g78
g59
NtRp1383
(dp1384
g62
(dp1385
g89
g90
ssg71
g1374
sg64
(lp1386
S':'
asbag57
(g78
g59
NtRp1387
(dp1388
g62
(dp1389
sg71
g1374
sg64
(lp1390
g57
(g58
g59
NtRp1391
(dp1392
g62
(dp1393
g70
I4
ssg71
g1387
sg64
(lp1394
S''
asbasbasbag57
(g73
g59
NtRp1395
(dp1396
g62
(dp1397
sg71
g822
sg64
(lp1398
g57
(g78
g59
NtRp1399
(dp1400
g62
(dp1401
g82
g83
ssg71
g1395
sg64
(lp1402
S'remote_addr'
p1403
asbag57
(g78
g59
NtRp1404
(dp1405
g62
(dp1406
g89
g90
ssg71
g1395
sg64
(lp1407
S':'
asbag57
(g78
g59
NtRp1408
(dp1409
g62
(dp1410
sg71
g1395
sg64
(lp1411
g57
(g58
g59
NtRp1412
(dp1413
g62
(dp1414
g70
I4
ssg71
g1408
sg64
(lp1415
g190
asbasbasbag57
(g73
g59
NtRp1416
(dp1417
g62
(dp1418
sg71
g822
sg64
(lp1419
g57
(g78
g59
NtRp1420
(dp1421
g62
(dp1422
g82
g83
ssg71
g1416
sg64
(lp1423
S'remote_port'
p1424
asbag57
(g78
g59
NtRp1425
(dp1426
g62
(dp1427
g89
g90
ssg71
g1416
sg64
(lp1428
S':'
asbag57
(g78
g59
NtRp1429
(dp1430
g62
(dp1431
sg71
g1416
sg64
(lp1432
g57
(g58
g59
NtRp1433
(dp1434
g62
(dp1435
g70
I4
ssg71
g1429
sg64
(lp1436
S'57451'
p1437
asbasbasbag57
(g73
g59
NtRp1438
(dp1439
g62
(dp1440
sg71
g822
sg64
(lp1441
g57
(g78
g59
NtRp1442
(dp1443
g62
(dp1444
g82
g83
ssg71
g1438
sg64
(lp1445
S'request_method'
p1446
asbag57
(g78
g59
NtRp1447
(dp1448
g62
(dp1449
g89
g90
ssg71
g1438
sg64
(lp1450
S':'
asbag57
(g78
g59
NtRp1451
(dp1452
g62
(dp1453
sg71
g1438
sg64
(lp1454
g57
(g58
g59
NtRp1455
(dp1456
g62
(dp1457
g70
I4
ssg71
g1451
sg64
(lp1458
S'POST'
p1459
asbasbasbag57
(g73
g59
NtRp1460
(dp1461
g62
(dp1462
sg71
g822
sg64
(lp1463
g57
(g78
g59
NtRp1464
(dp1465
g62
(dp1466
g82
g83
ssg71
g1460
sg64
(lp1467
S'script_name'
p1468
asbag57
(g78
g59
NtRp1469
(dp1470
g62
(dp1471
g89
g90
ssg71
g1460
sg64
(lp1472
S':'
asbag57
(g78
g59
NtRp1473
(dp1474
g62
(dp1475
sg71
g1460
sg64
(lp1476
g57
(g58
g59
NtRp1477
(dp1478
g62
(dp1479
g70
I4
ssg71
g1473
sg64
(lp1480
S''
asbasbasbag57
(g73
g59
NtRp1481
(dp1482
g62
(dp1483
sg71
g822
sg64
(lp1484
g57
(g78
g59
NtRp1485
(dp1486
g62
(dp1487
g82
g83
ssg71
g1481
sg64
(lp1488
S'server_name'
p1489
asbag57
(g78
g59
NtRp1490
(dp1491
g62
(dp1492
g89
g90
ssg71
g1481
sg64
(lp1493
S':'
asbag57
(g78
g59
NtRp1494
(dp1495
g62
(dp1496
sg71
g1481
sg64
(lp1497
g57
(g58
g59
NtRp1498
(dp1499
g62
(dp1500
g70
I4
ssg71
g1494
sg64
(lp1501
S'1901200822091P'
p1502
asbasbasbag57
(g73
g59
NtRp1503
(dp1504
g62
(dp1505
sg71
g822
sg64
(lp1506
g57
(g78
g59
NtRp1507
(dp1508
g62
(dp1509
g82
g83
ssg71
g1503
sg64
(lp1510
S'server_port'
p1511
asbag57
(g78
g59
NtRp1512
(dp1513
g62
(dp1514
g89
g90
ssg71
g1503
sg64
(lp1515
S':'
asbag57
(g78
g59
NtRp1516
(dp1517
g62
(dp1518
sg71
g1503
sg64
(lp1519
g57
(g58
g59
NtRp1520
(dp1521
g62
(dp1522
g70
I4
ssg71
g1516
sg64
(lp1523
S'8000'
p1524
asbasbasbag57
(g73
g59
NtRp1525
(dp1526
g62
(dp1527
sg71
g822
sg64
(lp1528
g57
(g78
g59
NtRp1529
(dp1530
g62
(dp1531
g82
g83
ssg71
g1525
sg64
(lp1532
S'server_protocol'
p1533
asbag57
(g78
g59
NtRp1534
(dp1535
g62
(dp1536
g89
g90
ssg71
g1525
sg64
(lp1537
S':'
asbag57
(g78
g59
NtRp1538
(dp1539
g62
(dp1540
sg71
g1525
sg64
(lp1541
g57
(g58
g59
NtRp1542
(dp1543
g62
(dp1544
g70
I4
ssg71
g1538
sg64
(lp1545
S'HTTP/1.1'
p1546
asbasbasbag57
(g73
g59
NtRp1547
(dp1548
g62
(dp1549
sg71
g822
sg64
(lp1550
g57
(g78
g59
NtRp1551
(dp1552
g62
(dp1553
g82
g83
ssg71
g1547
sg64
(lp1554
S'server_software'
p1555
asbag57
(g78
g59
NtRp1556
(dp1557
g62
(dp1558
g89
g90
ssg71
g1547
sg64
(lp1559
S':'
asbag57
(g78
g59
NtRp1560
(dp1561
g62
(dp1562
sg71
g1547
sg64
(lp1563
g57
(g58
g59
NtRp1564
(dp1565
g62
(dp1566
g70
I4
ssg71
g1560
sg64
(lp1567
S'Rocket 1.2.4'
p1568
asbasbasbag57
(g73
g59
NtRp1569
(dp1570
g62
(dp1571
sg71
g822
sg64
(lp1572
g57
(g78
g59
NtRp1573
(dp1574
g62
(dp1575
g82
g83
ssg71
g1569
sg64
(lp1576
S'web2py_crontype'
p1577
asbag57
(g78
g59
NtRp1578
(dp1579
g62
(dp1580
g89
g90
ssg71
g1569
sg64
(lp1581
S':'
asbag57
(g78
g59
NtRp1582
(dp1583
g62
(dp1584
sg71
g1569
sg64
(lp1585
g57
(g58
g59
NtRp1586
(dp1587
g62
(dp1588
g70
I4
ssg71
g1582
sg64
(lp1589
S'hard'
p1590
asbasbasbag57
(g73
g59
NtRp1591
(dp1592
g62
(dp1593
sg71
g822
sg64
(lp1594
g57
(g78
g59
NtRp1595
(dp1596
g62
(dp1597
g82
g83
ssg71
g1591
sg64
(lp1598
S'web2py_path'
p1599
asbag57
(g78
g59
NtRp1600
(dp1601
g62
(dp1602
g89
g90
ssg71
g1591
sg64
(lp1603
S':'
asbag57
(g78
g59
NtRp1604
(dp1605
g62
(dp1606
sg71
g1591
sg64
(lp1607
g57
(g58
g59
NtRp1608
(dp1609
g62
(dp1610
g70
I4
ssg71
g1604
sg64
(lp1611
g869
asbasbasbag57
(g73
g59
NtRp1612
(dp1613
g62
(dp1614
sg71
g822
sg64
(lp1615
g57
(g78
g59
NtRp1616
(dp1617
g62
(dp1618
g82
g83
ssg71
g1612
sg64
(lp1619
S'web2py_version'
p1620
asbag57
(g78
g59
NtRp1621
(dp1622
g62
(dp1623
g89
g90
ssg71
g1612
sg64
(lp1624
S':'
asbag57
(g78
g59
NtRp1625
(dp1626
g62
(dp1627
sg71
g1612
sg64
(lp1628
g57
(g58
g59
NtRp1629
(dp1630
g62
(dp1631
g70
I4
ssg71
g1625
sg64
(lp1632
g57
(g66
g59
NtRp1633
(dp1634
g62
(dp1635
g70
I3
ssg71
Nsg64
(lp1636
g57
(g73
g59
NtRp1637
(dp1638
g62
(dp1639
sg71
g1633
sg64
(lp1640
g57
(g78
g59
NtRp1641
(dp1642
g62
(dp1643
sg71
g1637
sg64
(lp1644
g57
(g58
g59
NtRp1645
(dp1646
g62
(dp1647
g70
I3
ssg71
g1641
sg64
(lp1648
S'1'
asbasbasbag57
(g73
g59
NtRp1649
(dp1650
g62
(dp1651
sg71
g1633
sg64
(lp1652
g57
(g78
g59
NtRp1653
(dp1654
g62
(dp1655
sg71
g1649
sg64
(lp1656
g57
(g58
g59
NtRp1657
(dp1658
g62
(dp1659
g70
I3
ssg71
g1653
sg64
(lp1660
S'99'
p1661
asbasbasbag57
(g73
g59
NtRp1662
(dp1663
g62
(dp1664
sg71
g1633
sg64
(lp1665
g57
(g78
g59
NtRp1666
(dp1667
g62
(dp1668
sg71
g1662
sg64
(lp1669
g57
(g58
g59
NtRp1670
(dp1671
g62
(dp1672
g70
I3
ssg71
g1666
sg64
(lp1673
S'4'
asbasbasbag57
(g73
g59
NtRp1674
(dp1675
g62
(dp1676
sg71
g1633
sg64
(lp1677
g57
(g78
g59
NtRp1678
(dp1679
g62
(dp1680
sg71
g1674
sg64
(lp1681
g57
(g58
g59
NtRp1682
(dp1683
g62
(dp1684
g70
I3
ssg71
g1678
sg64
(lp1685
S'datetime.datetime(2011, 12, 14, 14, 46, 14)'
p1686
asbasbasbag57
(g73
g59
NtRp1687
(dp1688
g62
(dp1689
sg71
g1633
sg64
(lp1690
g57
(g78
g59
NtRp1691
(dp1692
g62
(dp1693
sg71
g1687
sg64
(lp1694
g57
(g58
g59
NtRp1695
(dp1696
g62
(dp1697
g70
I3
ssg71
g1691
sg64
(lp1698
S'stable'
p1699
asbasbasbasbasbasbasbag57
(g73
g59
NtRp1700
(dp1701
g62
(dp1702
sg71
g822
sg64
(lp1703
g57
(g78
g59
NtRp1704
(dp1705
g62
(dp1706
g82
g83
ssg71
g1700
sg64
(lp1707
S'wsgi_errors'
p1708
asbag57
(g78
g59
NtRp1709
(dp1710
g62
(dp1711
g89
g90
ssg71
g1700
sg64
(lp1712
S':'
asbag57
(g78
g59
NtRp1713
(dp1714
g62
(dp1715
sg71
g1700
sg64
(lp1716
g57
(g58
g59
NtRp1717
(dp1718
g62
(dp1719
g70
I4
ssg71
g1713
sg64
(lp1720
S"<open file '<stderr>', mode 'w' at 0x012A50D0>"
p1721
asbasbasbag57
(g73
g59
NtRp1722
(dp1723
g62
(dp1724
sg71
g822
sg64
(lp1725
g57
(g78
g59
NtRp1726
(dp1727
g62
(dp1728
g82
g83
ssg71
g1722
sg64
(lp1729
S'wsgi_file_wrapper'
p1730
asbag57
(g78
g59
NtRp1731
(dp1732
g62
(dp1733
g89
g90
ssg71
g1722
sg64
(lp1734
S':'
asbag57
(g78
g59
NtRp1735
(dp1736
g62
(dp1737
sg71
g1722
sg64
(lp1738
g57
(g58
g59
NtRp1739
(dp1740
g62
(dp1741
g70
I4
ssg71
g1735
sg64
(lp1742
S'<class wsgiref.util.FileWrapper at 0x029409D0>'
p1743
asbasbasbag57
(g73
g59
NtRp1744
(dp1745
g62
(dp1746
sg71
g822
sg64
(lp1747
g57
(g78
g59
NtRp1748
(dp1749
g62
(dp1750
g82
g83
ssg71
g1744
sg64
(lp1751
S'wsgi_input'
p1752
asbag57
(g78
g59
NtRp1753
(dp1754
g62
(dp1755
g89
g90
ssg71
g1744
sg64
(lp1756
S':'
asbag57
(g78
g59
NtRp1757
(dp1758
g62
(dp1759
sg71
g1744
sg64
(lp1760
g57
(g58
g59
NtRp1761
(dp1762
g62
(dp1763
g70
I4
ssg71
g1757
sg64
(lp1764
S'<socket._fileobject object at 0x02D4D1F0>'
p1765
asbasbasbag57
(g73
g59
NtRp1766
(dp1767
g62
(dp1768
sg71
g822
sg64
(lp1769
g57
(g78
g59
NtRp1770
(dp1771
g62
(dp1772
g82
g83
ssg71
g1766
sg64
(lp1773
S'wsgi_multiprocess'
p1774
asbag57
(g78
g59
NtRp1775
(dp1776
g62
(dp1777
g89
g90
ssg71
g1766
sg64
(lp1778
S':'
asbag57
(g78
g59
NtRp1779
(dp1780
g62
(dp1781
sg71
g1766
sg64
(lp1782
g57
(g58
g59
NtRp1783
(dp1784
g62
(dp1785
g70
I4
ssg71
g1779
sg64
(lp1786
g100
asbasbasbag57
(g73
g59
NtRp1787
(dp1788
g62
(dp1789
sg71
g822
sg64
(lp1790
g57
(g78
g59
NtRp1791
(dp1792
g62
(dp1793
g82
g83
ssg71
g1787
sg64
(lp1794
S'wsgi_multithread'
p1795
asbag57
(g78
g59
NtRp1796
(dp1797
g62
(dp1798
g89
g90
ssg71
g1787
sg64
(lp1799
S':'
asbag57
(g78
g59
NtRp1800
(dp1801
g62
(dp1802
sg71
g1787
sg64
(lp1803
g57
(g58
g59
NtRp1804
(dp1805
g62
(dp1806
g70
I4
ssg71
g1800
sg64
(lp1807
S'True'
p1808
asbasbasbag57
(g73
g59
NtRp1809
(dp1810
g62
(dp1811
sg71
g822
sg64
(lp1812
g57
(g78
g59
NtRp1813
(dp1814
g62
(dp1815
g82
g83
ssg71
g1809
sg64
(lp1816
S'wsgi_run_once'
p1817
asbag57
(g78
g59
NtRp1818
(dp1819
g62
(dp1820
g89
g90
ssg71
g1809
sg64
(lp1821
S':'
asbag57
(g78
g59
NtRp1822
(dp1823
g62
(dp1824
sg71
g1809
sg64
(lp1825
g57
(g58
g59
NtRp1826
(dp1827
g62
(dp1828
g70
I4
ssg71
g1822
sg64
(lp1829
g100
asbasbasbag57
(g73
g59
NtRp1830
(dp1831
g62
(dp1832
sg71
g822
sg64
(lp1833
g57
(g78
g59
NtRp1834
(dp1835
g62
(dp1836
g82
g83
ssg71
g1830
sg64
(lp1837
S'wsgi_url_scheme'
p1838
asbag57
(g78
g59
NtRp1839
(dp1840
g62
(dp1841
g89
g90
ssg71
g1830
sg64
(lp1842
S':'
asbag57
(g78
g59
NtRp1843
(dp1844
g62
(dp1845
sg71
g1830
sg64
(lp1846
g57
(g58
g59
NtRp1847
(dp1848
g62
(dp1849
g70
I4
ssg71
g1843
sg64
(lp1850
S'http'
p1851
asbasbasbag57
(g73
g59
NtRp1852
(dp1853
g62
(dp1854
sg71
g822
sg64
(lp1855
g57
(g78
g59
NtRp1856
(dp1857
g62
(dp1858
g82
g83
ssg71
g1852
sg64
(lp1859
S'wsgi_version'
p1860
asbag57
(g78
g59
NtRp1861
(dp1862
g62
(dp1863
g89
g90
ssg71
g1852
sg64
(lp1864
S':'
asbag57
(g78
g59
NtRp1865
(dp1866
g62
(dp1867
sg71
g1852
sg64
(lp1868
g57
(g58
g59
NtRp1869
(dp1870
g62
(dp1871
g70
I4
ssg71
g1865
sg64
(lp1872
g57
(g66
g59
NtRp1873
(dp1874
g62
(dp1875
g70
I3
ssg71
Nsg64
(lp1876
g57
(g73
g59
NtRp1877
(dp1878
g62
(dp1879
sg71
g1873
sg64
(lp1880
g57
(g78
g59
NtRp1881
(dp1882
g62
(dp1883
sg71
g1877
sg64
(lp1884
g57
(g58
g59
NtRp1885
(dp1886
g62
(dp1887
g70
I3
ssg71
g1881
sg64
(lp1888
S'1'
asbasbasbag57
(g73
g59
NtRp1889
(dp1890
g62
(dp1891
sg71
g1873
sg64
(lp1892
g57
(g78
g59
NtRp1893
(dp1894
g62
(dp1895
sg71
g1889
sg64
(lp1896
g57
(g58
g59
NtRp1897
(dp1898
g62
(dp1899
g70
I3
ssg71
g1893
sg64
(lp1900
S'0'
asbasbasbasbasbasbasbasbasbasbasbag57
(g73
g59
NtRp1901
(dp1902
g62
(dp1903
sg71
g67
sg64
(lp1904
g57
(g78
g59
NtRp1905
(dp1906
g62
(dp1907
g82
g83
ssg71
g1901
sg64
(lp1908
S'extension'
p1909
asbag57
(g78
g59
NtRp1910
(dp1911
g62
(dp1912
g89
g90
ssg71
g1901
sg64
(lp1913
S':'
asbag57
(g78
g59
NtRp1914
(dp1915
g62
(dp1916
sg71
g1901
sg64
(lp1917
g57
(g58
g59
NtRp1918
(dp1919
g62
(dp1920
g70
I5
ssg71
g1914
sg64
(lp1921
S'html'
p1922
asbasbasbag57
(g73
g59
NtRp1923
(dp1924
g62
(dp1925
sg71
g67
sg64
(lp1926
g57
(g78
g59
NtRp1927
(dp1928
g62
(dp1929
g82
g83
ssg71
g1923
sg64
(lp1930
S'folder'
p1931
asbag57
(g78
g59
NtRp1932
(dp1933
g62
(dp1934
g89
g90
ssg71
g1923
sg64
(lp1935
S':'
asbag57
(g78
g59
NtRp1936
(dp1937
g62
(dp1938
sg71
g1923
sg64
(lp1939
g57
(g58
g59
NtRp1940
(dp1941
g62
(dp1942
g70
I5
ssg71
g1936
sg64
(lp1943
S'E:\\Programming\\Python\\web2py\\applications\\vote_up\\'
p1944
asbasbasbag57
(g73
g59
NtRp1945
(dp1946
g62
(dp1947
sg71
g67
sg64
(lp1948
g57
(g78
g59
NtRp1949
(dp1950
g62
(dp1951
g82
g83
ssg71
g1945
sg64
(lp1952
S'function'
p1953
asbag57
(g78
g59
NtRp1954
(dp1955
g62
(dp1956
g89
g90
ssg71
g1945
sg64
(lp1957
S':'
asbag57
(g78
g59
NtRp1958
(dp1959
g62
(dp1960
sg71
g1945
sg64
(lp1961
g57
(g58
g59
NtRp1962
(dp1963
g62
(dp1964
g70
I5
ssg71
g1958
sg64
(lp1965
S'new_post'
p1966
asbasbasbag57
(g73
g59
NtRp1967
(dp1968
g62
(dp1969
sg71
g67
sg64
(lp1970
g57
(g78
g59
NtRp1971
(dp1972
g62
(dp1973
g82
g83
ssg71
g1967
sg64
(lp1974
S'get_vars'
p1975
asbag57
(g78
g59
NtRp1976
(dp1977
g62
(dp1978
g89
g90
ssg71
g1967
sg64
(lp1979
S':'
asbag57
(g78
g59
NtRp1980
(dp1981
g62
(dp1982
sg71
g1967
sg64
(lp1983
g57
(g58
g59
NtRp1984
(dp1985
g62
(dp1986
g70
I5
ssg71
g1980
sg64
(lp1987
g57
(g66
g59
NtRp1988
(dp1989
g62
(dp1990
g70
I4
ssg71
Nsg64
(lp1991
sbasbasbasbag57
(g73
g59
NtRp1992
(dp1993
g62
(dp1994
sg71
g67
sg64
(lp1995
g57
(g78
g59
NtRp1996
(dp1997
g62
(dp1998
g82
g83
ssg71
g1992
sg64
(lp1999
S'global_settings'
p2000
asbag57
(g78
g59
NtRp2001
(dp2002
g62
(dp2003
g89
g90
ssg71
g1992
sg64
(lp2004
S':'
asbag57
(g78
g59
NtRp2005
(dp2006
g62
(dp2007
sg71
g1992
sg64
(lp2008
g57
(g58
g59
NtRp2009
(dp2010
g62
(dp2011
g70
I5
ssg71
g2005
sg64
(lp2012
g57
(g66
g59
NtRp2013
(dp2014
g62
(dp2015
g70
I4
ssg71
Nsg64
(lp2016
g57
(g73
g59
NtRp2017
(dp2018
g62
(dp2019
sg71
g2013
sg64
(lp2020
g57
(g78
g59
NtRp2021
(dp2022
g62
(dp2023
g82
g83
ssg71
g2017
sg64
(lp2024
g834
asbag57
(g78
g59
NtRp2025
(dp2026
g62
(dp2027
g89
g90
ssg71
g2017
sg64
(lp2028
S':'
asbag57
(g78
g59
NtRp2029
(dp2030
g62
(dp2031
sg71
g2017
sg64
(lp2032
g57
(g58
g59
NtRp2033
(dp2034
g62
(dp2035
g70
I4
ssg71
g2029
sg64
(lp2036
S"set(['E:\\\\Programming\\\\Python\\\\web2py\\\\applications\\\\vote_up\\\\', 'E:\\\\Programming\\\\Python\\\\web2py\\\\applications\\\\welcome\\\\', 'E:\\\\Programming\\\\Python\\\\web2py\\\\applications\\\\admin\\\\'])"
p2037
asbasbasbag57
(g73
g59
NtRp2038
(dp2039
g62
(dp2040
sg71
g2013
sg64
(lp2041
g57
(g78
g59
NtRp2042
(dp2043
g62
(dp2044
g82
g83
ssg71
g2038
sg64
(lp2045
g856
asbag57
(g78
g59
NtRp2046
(dp2047
g62
(dp2048
g89
g90
ssg71
g2038
sg64
(lp2049
S':'
asbag57
(g78
g59
NtRp2050
(dp2051
g62
(dp2052
sg71
g2038
sg64
(lp2053
g57
(g58
g59
NtRp2054
(dp2055
g62
(dp2056
g70
I4
ssg71
g2050
sg64
(lp2057
g869
asbasbasbag57
(g73
g59
NtRp2058
(dp2059
g62
(dp2060
sg71
g2013
sg64
(lp2061
g57
(g78
g59
NtRp2062
(dp2063
g62
(dp2064
g82
g83
ssg71
g2058
sg64
(lp2065
g878
asbag57
(g78
g59
NtRp2066
(dp2067
g62
(dp2068
g89
g90
ssg71
g2058
sg64
(lp2069
S':'
asbag57
(g78
g59
NtRp2070
(dp2071
g62
(dp2072
sg71
g2058
sg64
(lp2073
g57
(g58
g59
NtRp2074
(dp2075
g62
(dp2076
g70
I4
ssg71
g2070
sg64
(lp2077
g57
(g66
g59
NtRp2078
(dp2079
g62
(dp2080
g70
I3
ssg71
Nsg64
(lp2081
sbasbasbasbag57
(g73
g59
NtRp2082
(dp2083
g62
(dp2084
sg71
g2013
sg64
(lp2085
g57
(g78
g59
NtRp2086
(dp2087
g62
(dp2088
g82
g83
ssg71
g2082
sg64
(lp2089
g903
asbag57
(g78
g59
NtRp2090
(dp2091
g62
(dp2092
g89
g90
ssg71
g2082
sg64
(lp2093
S':'
asbag57
(g78
g59
NtRp2094
(dp2095
g62
(dp2096
sg71
g2082
sg64
(lp2097
g57
(g58
g59
NtRp2098
(dp2099
g62
(dp2100
g70
I4
ssg71
g2094
sg64
(lp2101
S"<Values at 0x246e0d0: {'verbose': False, 'ip': '127.0.0.1', 'shutdown_timeout': 5, 'taskbar': False, 'nocron': False, 'pid_filename': 'httpserver.pid', 'maxthreads': None, 'softcron': False, 'server_name': '1901200822091P', 'bpython': False, 'nogui': False, 'port': 8000, 'extcron': False, 'debuglevel': 30, 'test': None, 'folder': 'E:\\\\Programming\\\\Python\\\\web2py', 'config': '', 'import_models': False, 'winservice': '', 'shell': None, 'run': '', 'log_filename': 'httpserver.log', 'args': [''], 'socket_timeout': 1, 'ssl_ca_certificate': None, 'scheduler': None, 'profiler_filename': None, 'ssl_private_key': '', 'password': '<ask>', 'request_queue_size': 5, 'ssl_certificate': '', 'cronjob': False, 'numthreads': None, 'quiet': False, 'interfaces': None, 'minthreads': None, 'timeout': 10, 'plain': False, 'nobanner': False}>"
p2102
asbasbasbag57
(g73
g59
NtRp2103
(dp2104
g62
(dp2105
sg71
g2013
sg64
(lp2106
g57
(g78
g59
NtRp2107
(dp2108
g62
(dp2109
g82
g83
ssg71
g2103
sg64
(lp2110
g969
asbag57
(g78
g59
NtRp2111
(dp2112
g62
(dp2113
g89
g90
ssg71
g2103
sg64
(lp2114
S':'
asbag57
(g78
g59
NtRp2115
(dp2116
g62
(dp2117
sg71
g2103
sg64
(lp2118
g57
(g58
g59
NtRp2119
(dp2120
g62
(dp2121
g70
I4
ssg71
g2115
sg64
(lp2122
S'set([])'
p2123
asbasbasbag57
(g73
g59
NtRp2124
(dp2125
g62
(dp2126
sg71
g2013
sg64
(lp2127
g57
(g78
g59
NtRp2128
(dp2129
g62
(dp2130
g82
g83
ssg71
g2124
sg64
(lp2131
g991
asbag57
(g78
g59
NtRp2132
(dp2133
g62
(dp2134
g89
g90
ssg71
g2124
sg64
(lp2135
S':'
asbag57
(g78
g59
NtRp2136
(dp2137
g62
(dp2138
sg71
g2124
sg64
(lp2139
g57
(g58
g59
NtRp2140
(dp2141
g62
(dp2142
g70
I4
ssg71
g2136
sg64
(lp2143
g100
asbasbasbag57
(g73
g59
NtRp2144
(dp2145
g62
(dp2146
sg71
g2013
sg64
(lp2147
g57
(g78
g59
NtRp2148
(dp2149
g62
(dp2150
g82
g83
ssg71
g2144
sg64
(lp2151
g1012
asbag57
(g78
g59
NtRp2152
(dp2153
g62
(dp2154
g89
g90
ssg71
g2144
sg64
(lp2155
S':'
asbag57
(g78
g59
NtRp2156
(dp2157
g62
(dp2158
sg71
g2144
sg64
(lp2159
g57
(g58
g59
NtRp2160
(dp2161
g62
(dp2162
g70
I4
ssg71
g2156
sg64
(lp2163
g1025
asbasbasbag57
(g73
g59
NtRp2164
(dp2165
g62
(dp2166
sg71
g2013
sg64
(lp2167
g57
(g78
g59
NtRp2168
(dp2169
g62
(dp2170
g82
g83
ssg71
g2164
sg64
(lp2171
g1318
asbag57
(g78
g59
NtRp2172
(dp2173
g62
(dp2174
g89
g90
ssg71
g2164
sg64
(lp2175
S':'
asbag57
(g78
g59
NtRp2176
(dp2177
g62
(dp2178
sg71
g2164
sg64
(lp2179
g57
(g58
g59
NtRp2180
(dp2181
g62
(dp2182
g70
I4
ssg71
g2176
sg64
(lp2183
g100
asbasbasbag57
(g73
g59
NtRp2184
(dp2185
g62
(dp2186
sg71
g2013
sg64
(lp2187
g57
(g78
g59
NtRp2188
(dp2189
g62
(dp2190
g82
g83
ssg71
g2184
sg64
(lp2191
g1339
asbag57
(g78
g59
NtRp2192
(dp2193
g62
(dp2194
g89
g90
ssg71
g2184
sg64
(lp2195
S':'
asbag57
(g78
g59
NtRp2196
(dp2197
g62
(dp2198
sg71
g2184
sg64
(lp2199
g57
(g58
g59
NtRp2200
(dp2201
g62
(dp2202
g70
I4
ssg71
g2196
sg64
(lp2203
g100
asbasbasbag57
(g73
g59
NtRp2204
(dp2205
g62
(dp2206
sg71
g2013
sg64
(lp2207
g57
(g78
g59
NtRp2208
(dp2209
g62
(dp2210
g82
g83
ssg71
g2204
sg64
(lp2211
g1577
asbag57
(g78
g59
NtRp2212
(dp2213
g62
(dp2214
g89
g90
ssg71
g2204
sg64
(lp2215
S':'
asbag57
(g78
g59
NtRp2216
(dp2217
g62
(dp2218
sg71
g2204
sg64
(lp2219
g57
(g58
g59
NtRp2220
(dp2221
g62
(dp2222
g70
I4
ssg71
g2216
sg64
(lp2223
g1590
asbasbasbag57
(g73
g59
NtRp2224
(dp2225
g62
(dp2226
sg71
g2013
sg64
(lp2227
g57
(g78
g59
NtRp2228
(dp2229
g62
(dp2230
g82
g83
ssg71
g2224
sg64
(lp2231
g1620
asbag57
(g78
g59
NtRp2232
(dp2233
g62
(dp2234
g89
g90
ssg71
g2224
sg64
(lp2235
S':'
asbag57
(g78
g59
NtRp2236
(dp2237
g62
(dp2238
sg71
g2224
sg64
(lp2239
g57
(g58
g59
NtRp2240
(dp2241
g62
(dp2242
g70
I4
ssg71
g2236
sg64
(lp2243
g57
(g66
g59
NtRp2244
(dp2245
g62
(dp2246
g70
I3
ssg71
Nsg64
(lp2247
g57
(g73
g59
NtRp2248
(dp2249
g62
(dp2250
sg71
g2244
sg64
(lp2251
g57
(g78
g59
NtRp2252
(dp2253
g62
(dp2254
sg71
g2248
sg64
(lp2255
g57
(g58
g59
NtRp2256
(dp2257
g62
(dp2258
g70
I3
ssg71
g2252
sg64
(lp2259
S'1'
asbasbasbag57
(g73
g59
NtRp2260
(dp2261
g62
(dp2262
sg71
g2244
sg64
(lp2263
g57
(g78
g59
NtRp2264
(dp2265
g62
(dp2266
sg71
g2260
sg64
(lp2267
g57
(g58
g59
NtRp2268
(dp2269
g62
(dp2270
g70
I3
ssg71
g2264
sg64
(lp2271
S'99'
p2272
asbasbasbag57
(g73
g59
NtRp2273
(dp2274
g62
(dp2275
sg71
g2244
sg64
(lp2276
g57
(g78
g59
NtRp2277
(dp2278
g62
(dp2279
sg71
g2273
sg64
(lp2280
g57
(g58
g59
NtRp2281
(dp2282
g62
(dp2283
g70
I3
ssg71
g2277
sg64
(lp2284
S'4'
asbasbasbag57
(g73
g59
NtRp2285
(dp2286
g62
(dp2287
sg71
g2244
sg64
(lp2288
g57
(g78
g59
NtRp2289
(dp2290
g62
(dp2291
sg71
g2285
sg64
(lp2292
g57
(g58
g59
NtRp2293
(dp2294
g62
(dp2295
g70
I3
ssg71
g2289
sg64
(lp2296
S'datetime.datetime(2011, 12, 14, 14, 46, 14)'
p2297
asbasbasbag57
(g73
g59
NtRp2298
(dp2299
g62
(dp2300
sg71
g2244
sg64
(lp2301
g57
(g78
g59
NtRp2302
(dp2303
g62
(dp2304
sg71
g2298
sg64
(lp2305
g57
(g58
g59
NtRp2306
(dp2307
g62
(dp2308
g70
I3
ssg71
g2302
sg64
(lp2309
g1699
asbasbasbasbasbasbasbasbasbasbasbag57
(g73
g59
NtRp2310
(dp2311
g62
(dp2312
sg71
g67
sg64
(lp2313
g57
(g78
g59
NtRp2314
(dp2315
g62
(dp2316
g82
g83
ssg71
g2310
sg64
(lp2317
S'is_https'
p2318
asbag57
(g78
g59
NtRp2319
(dp2320
g62
(dp2321
g89
g90
ssg71
g2310
sg64
(lp2322
S':'
asbag57
(g78
g59
NtRp2323
(dp2324
g62
(dp2325
sg71
g2310
sg64
(lp2326
g57
(g58
g59
NtRp2327
(dp2328
g62
(dp2329
g70
I5
ssg71
g2323
sg64
(lp2330
g100
asbasbasbag57
(g73
g59
NtRp2331
(dp2332
g62
(dp2333
sg71
g67
sg64
(lp2334
g57
(g78
g59
NtRp2335
(dp2336
g62
(dp2337
g82
g83
ssg71
g2331
sg64
(lp2338
S'is_local'
p2339
asbag57
(g78
g59
NtRp2340
(dp2341
g62
(dp2342
g89
g90
ssg71
g2331
sg64
(lp2343
S':'
asbag57
(g78
g59
NtRp2344
(dp2345
g62
(dp2346
sg71
g2331
sg64
(lp2347
g57
(g58
g59
NtRp2348
(dp2349
g62
(dp2350
g70
I5
ssg71
g2344
sg64
(lp2351
g1808
asbasbasbag57
(g73
g59
NtRp2352
(dp2353
g62
(dp2354
sg71
g67
sg64
(lp2355
g57
(g78
g59
NtRp2356
(dp2357
g62
(dp2358
g82
g83
ssg71
g2352
sg64
(lp2359
S'is_restful'
p2360
asbag57
(g78
g59
NtRp2361
(dp2362
g62
(dp2363
g89
g90
ssg71
g2352
sg64
(lp2364
S':'
asbag57
(g78
g59
NtRp2365
(dp2366
g62
(dp2367
sg71
g2352
sg64
(lp2368
g57
(g58
g59
NtRp2369
(dp2370
g62
(dp2371
g70
I5
ssg71
g2365
sg64
(lp2372
g100
asbasbasbag57
(g73
g59
NtRp2373
(dp2374
g62
(dp2375
sg71
g67
sg64
(lp2376
g57
(g78
g59
NtRp2377
(dp2378
g62
(dp2379
g82
g83
ssg71
g2373
sg64
(lp2380
S'now'
p2381
asbag57
(g78
g59
NtRp2382
(dp2383
g62
(dp2384
g89
g90
ssg71
g2373
sg64
(lp2385
S':'
asbag57
(g78
g59
NtRp2386
(dp2387
g62
(dp2388
sg71
g2373
sg64
(lp2389
g57
(g58
g59
NtRp2390
(dp2391
g62
(dp2392
g70
I5
ssg71
g2386
sg64
(lp2393
S'datetime.datetime(2012, 2, 13, 14, 49, 39, 503000)'
p2394
asbasbasbag57
(g73
g59
NtRp2395
(dp2396
g62
(dp2397
sg71
g67
sg64
(lp2398
g57
(g78
g59
NtRp2399
(dp2400
g62
(dp2401
g82
g83
ssg71
g2395
sg64
(lp2402
S'post_vars'
p2403
asbag57
(g78
g59
NtRp2404
(dp2405
g62
(dp2406
g89
g90
ssg71
g2395
sg64
(lp2407
S':'
asbag57
(g78
g59
NtRp2408
(dp2409
g62
(dp2410
sg71
g2395
sg64
(lp2411
g57
(g58
g59
NtRp2412
(dp2413
g62
(dp2414
g70
I5
ssg71
g2408
sg64
(lp2415
g57
(g66
g59
NtRp2416
(dp2417
g62
(dp2418
g70
I4
ssg71
Nsg64
(lp2419
g57
(g73
g59
NtRp2420
(dp2421
g62
(dp2422
sg71
g2416
sg64
(lp2423
g57
(g78
g59
NtRp2424
(dp2425
g62
(dp2426
g82
g83
ssg71
g2420
sg64
(lp2427
S'message'
p2428
asbag57
(g78
g59
NtRp2429
(dp2430
g62
(dp2431
g89
g90
ssg71
g2420
sg64
(lp2432
S':'
asbag57
(g78
g59
NtRp2433
(dp2434
g62
(dp2435
sg71
g2420
sg64
(lp2436
g57
(g58
g59
NtRp2437
(dp2438
g62
(dp2439
g70
I4
ssg71
g2433
sg64
(lp2440
S'Hello World'
p2441
asbasbasbag57
(g73
g59
NtRp2442
(dp2443
g62
(dp2444
sg71
g2416
sg64
(lp2445
g57
(g78
g59
NtRp2446
(dp2447
g62
(dp2448
g82
g83
ssg71
g2442
sg64
(lp2449
S'title'
p2450
asbag57
(g78
g59
NtRp2451
(dp2452
g62
(dp2453
g89
g90
ssg71
g2442
sg64
(lp2454
S':'
asbag57
(g78
g59
NtRp2455
(dp2456
g62
(dp2457
sg71
g2442
sg64
(lp2458
g57
(g58
g59
NtRp2459
(dp2460
g62
(dp2461
g70
I4
ssg71
g2455
sg64
(lp2462
S'Hi'
p2463
asbasbasbasbasbasbasbag57
(g73
g59
NtRp2464
(dp2465
g62
(dp2466
sg71
g67
sg64
(lp2467
g57
(g78
g59
NtRp2468
(dp2469
g62
(dp2470
g82
g83
ssg71
g2464
sg64
(lp2471
S'url'
p2472
asbag57
(g78
g59
NtRp2473
(dp2474
g62
(dp2475
g89
g90
ssg71
g2464
sg64
(lp2476
S':'
asbag57
(g78
g59
NtRp2477
(dp2478
g62
(dp2479
sg71
g2464
sg64
(lp2480
g57
(g58
g59
NtRp2481
(dp2482
g62
(dp2483
g70
I5
ssg71
g2477
sg64
(lp2484
S'/vote_up/default/new_post'
p2485
asbasbasbag57
(g73
g59
NtRp2486
(dp2487
g62
(dp2488
sg71
g67
sg64
(lp2489
g57
(g78
g59
NtRp2490
(dp2491
g62
(dp2492
g82
g83
ssg71
g2486
sg64
(lp2493
S'utcnow'
p2494
asbag57
(g78
g59
NtRp2495
(dp2496
g62
(dp2497
g89
g90
ssg71
g2486
sg64
(lp2498
S':'
asbag57
(g78
g59
NtRp2499
(dp2500
g62
(dp2501
sg71
g2486
sg64
(lp2502
g57
(g58
g59
NtRp2503
(dp2504
g62
(dp2505
g70
I5
ssg71
g2499
sg64
(lp2506
S'datetime.datetime(2012, 2, 13, 9, 19, 39, 503000)'
p2507
asbasbasbag57
(g73
g59
NtRp2508
(dp2509
g62
(dp2510
sg71
g67
sg64
(lp2511
g57
(g78
g59
NtRp2512
(dp2513
g62
(dp2514
g82
g83
ssg71
g2508
sg64
(lp2515
S'uuid'
p2516
asbag57
(g78
g59
NtRp2517
(dp2518
g62
(dp2519
g89
g90
ssg71
g2508
sg64
(lp2520
S':'
asbag57
(g78
g59
NtRp2521
(dp2522
g62
(dp2523
sg71
g2508
sg64
(lp2524
g57
(g58
g59
NtRp2525
(dp2526
g62
(dp2527
g70
I5
ssg71
g2521
sg64
(lp2528
S'vote_up/127.0.0.1.2012-02-13.14-49-39.bac7ec05-3a98-40a5-aa60-fb202a2320c3'
p2529
asbasbasbag57
(g73
g59
NtRp2530
(dp2531
g62
(dp2532
sg71
g67
sg64
(lp2533
g57
(g78
g59
NtRp2534
(dp2535
g62
(dp2536
g82
g83
ssg71
g2530
sg64
(lp2537
S'vars'
p2538
asbag57
(g78
g59
NtRp2539
(dp2540
g62
(dp2541
g89
g90
ssg71
g2530
sg64
(lp2542
S':'
asbag57
(g78
g59
NtRp2543
(dp2544
g62
(dp2545
sg71
g2530
sg64
(lp2546
g57
(g58
g59
NtRp2547
(dp2548
g62
(dp2549
g70
I5
ssg71
g2543
sg64
(lp2550
g57
(g66
g59
NtRp2551
(dp2552
g62
(dp2553
g70
I4
ssg71
Nsg64
(lp2554
g57
(g73
g59
NtRp2555
(dp2556
g62
(dp2557
sg71
g2551
sg64
(lp2558
g57
(g78
g59
NtRp2559
(dp2560
g62
(dp2561
g82
g83
ssg71
g2555
sg64
(lp2562
g2428
asbag57
(g78
g59
NtRp2563
(dp2564
g62
(dp2565
g89
g90
ssg71
g2555
sg64
(lp2566
S':'
asbag57
(g78
g59
NtRp2567
(dp2568
g62
(dp2569
sg71
g2555
sg64
(lp2570
g57
(g58
g59
NtRp2571
(dp2572
g62
(dp2573
g70
I4
ssg71
g2567
sg64
(lp2574
g2441
asbasbasbag57
(g73
g59
NtRp2575
(dp2576
g62
(dp2577
sg71
g2551
sg64
(lp2578
g57
(g78
g59
NtRp2579
(dp2580
g62
(dp2581
g82
g83
ssg71
g2575
sg64
(lp2582
g2450
asbag57
(g78
g59
NtRp2583
(dp2584
g62
(dp2585
g89
g90
ssg71
g2575
sg64
(lp2586
S':'
asbag57
(g78
g59
NtRp2587
(dp2588
g62
(dp2589
sg71
g2575
sg64
(lp2590
g57
(g58
g59
NtRp2591
(dp2592
g62
(dp2593
g70
I4
ssg71
g2587
sg64
(lp2594
g2463
asbasbasbasbasbasbasbag57
(g73
g59
NtRp2595
(dp2596
g62
(dp2597
sg71
g67
sg64
(lp2598
g57
(g78
g59
NtRp2599
(dp2600
g62
(dp2601
g82
g83
ssg71
g2595
sg64
(lp2602
S'wsgi'
p2603
asbag57
(g78
g59
NtRp2604
(dp2605
g62
(dp2606
g89
g90
ssg71
g2595
sg64
(lp2607
S':'
asbag57
(g78
g59
NtRp2608
(dp2609
g62
(dp2610
sg71
g2595
sg64
(lp2611
g57
(g58
g59
NtRp2612
(dp2613
g62
(dp2614
g70
I5
ssg71
g2608
sg64
(lp2615
g57
(g66
g59
NtRp2616
(dp2617
g62
(dp2618
g70
I4
ssg71
Nsg64
(lp2619
g57
(g73
g59
NtRp2620
(dp2621
g62
(dp2622
sg71
g2616
sg64
(lp2623
g57
(g78
g59
NtRp2624
(dp2625
g62
(dp2626
g82
g83
ssg71
g2620
sg64
(lp2627
S'environ'
p2628
asbag57
(g78
g59
NtRp2629
(dp2630
g62
(dp2631
g89
g90
ssg71
g2620
sg64
(lp2632
S':'
asbag57
(g78
g59
NtRp2633
(dp2634
g62
(dp2635
sg71
g2620
sg64
(lp2636
g57
(g58
g59
NtRp2637
(dp2638
g62
(dp2639
g70
I4
ssg71
g2633
sg64
(lp2640
g57
(g66
g59
NtRp2641
(dp2642
g62
(dp2643
g70
I3
ssg71
Nsg64
(lp2644
g57
(g73
g59
NtRp2645
(dp2646
g62
(dp2647
sg71
g2641
sg64
(lp2648
g57
(g78
g59
NtRp2649
(dp2650
g62
(dp2651
g82
g83
ssg71
g2645
sg64
(lp2652
S'CONTENT_LENGTH'
p2653
asbag57
(g78
g59
NtRp2654
(dp2655
g62
(dp2656
g89
g90
ssg71
g2645
sg64
(lp2657
S':'
asbag57
(g78
g59
NtRp2658
(dp2659
g62
(dp2660
sg71
g2645
sg64
(lp2661
g57
(g58
g59
NtRp2662
(dp2663
g62
(dp2664
g70
I3
ssg71
g2658
sg64
(lp2665
g938
asbasbasbag57
(g73
g59
NtRp2666
(dp2667
g62
(dp2668
sg71
g2641
sg64
(lp2669
g57
(g78
g59
NtRp2670
(dp2671
g62
(dp2672
g82
g83
ssg71
g2666
sg64
(lp2673
S'CONTENT_TYPE'
p2674
asbag57
(g78
g59
NtRp2675
(dp2676
g62
(dp2677
g89
g90
ssg71
g2666
sg64
(lp2678
S':'
asbag57
(g78
g59
NtRp2679
(dp2680
g62
(dp2681
sg71
g2666
sg64
(lp2682
g57
(g58
g59
NtRp2683
(dp2684
g62
(dp2685
g70
I3
ssg71
g2679
sg64
(lp2686
g960
asbasbasbag57
(g73
g59
NtRp2687
(dp2688
g62
(dp2689
sg71
g2641
sg64
(lp2690
g57
(g78
g59
NtRp2691
(dp2692
g62
(dp2693
g82
g83
ssg71
g2687
sg64
(lp2694
S'HTTP_ACCEPT'
p2695
asbag57
(g78
g59
NtRp2696
(dp2697
g62
(dp2698
g89
g90
ssg71
g2687
sg64
(lp2699
S':'
asbag57
(g78
g59
NtRp2700
(dp2701
g62
(dp2702
sg71
g2687
sg64
(lp2703
g57
(g58
g59
NtRp2704
(dp2705
g62
(dp2706
g70
I3
ssg71
g2700
sg64
(lp2707
g1047
asbasbasbag57
(g73
g59
NtRp2708
(dp2709
g62
(dp2710
sg71
g2641
sg64
(lp2711
g57
(g78
g59
NtRp2712
(dp2713
g62
(dp2714
g82
g83
ssg71
g2708
sg64
(lp2715
S'HTTP_ACCEPT_CHARSET'
p2716
asbag57
(g78
g59
NtRp2717
(dp2718
g62
(dp2719
g89
g90
ssg71
g2708
sg64
(lp2720
S':'
asbag57
(g78
g59
NtRp2721
(dp2722
g62
(dp2723
sg71
g2708
sg64
(lp2724
g57
(g58
g59
NtRp2725
(dp2726
g62
(dp2727
g70
I3
ssg71
g2721
sg64
(lp2728
g1069
asbasbasbag57
(g73
g59
NtRp2729
(dp2730
g62
(dp2731
sg71
g2641
sg64
(lp2732
g57
(g78
g59
NtRp2733
(dp2734
g62
(dp2735
g82
g83
ssg71
g2729
sg64
(lp2736
S'HTTP_ACCEPT_ENCODING'
p2737
asbag57
(g78
g59
NtRp2738
(dp2739
g62
(dp2740
g89
g90
ssg71
g2729
sg64
(lp2741
S':'
asbag57
(g78
g59
NtRp2742
(dp2743
g62
(dp2744
sg71
g2729
sg64
(lp2745
g57
(g58
g59
NtRp2746
(dp2747
g62
(dp2748
g70
I3
ssg71
g2742
sg64
(lp2749
g1091
asbasbasbag57
(g73
g59
NtRp2750
(dp2751
g62
(dp2752
sg71
g2641
sg64
(lp2753
g57
(g78
g59
NtRp2754
(dp2755
g62
(dp2756
g82
g83
ssg71
g2750
sg64
(lp2757
S'HTTP_ACCEPT_LANGUAGE'
p2758
asbag57
(g78
g59
NtRp2759
(dp2760
g62
(dp2761
g89
g90
ssg71
g2750
sg64
(lp2762
S':'
asbag57
(g78
g59
NtRp2763
(dp2764
g62
(dp2765
sg71
g2750
sg64
(lp2766
g57
(g58
g59
NtRp2767
(dp2768
g62
(dp2769
g70
I3
ssg71
g2763
sg64
(lp2770
g1113
asbasbasbag57
(g73
g59
NtRp2771
(dp2772
g62
(dp2773
sg71
g2641
sg64
(lp2774
g57
(g78
g59
NtRp2775
(dp2776
g62
(dp2777
g82
g83
ssg71
g2771
sg64
(lp2778
S'HTTP_CACHE_CONTROL'
p2779
asbag57
(g78
g59
NtRp2780
(dp2781
g62
(dp2782
g89
g90
ssg71
g2771
sg64
(lp2783
S':'
asbag57
(g78
g59
NtRp2784
(dp2785
g62
(dp2786
sg71
g2771
sg64
(lp2787
g57
(g58
g59
NtRp2788
(dp2789
g62
(dp2790
g70
I3
ssg71
g2784
sg64
(lp2791
g1135
asbasbasbag57
(g73
g59
NtRp2792
(dp2793
g62
(dp2794
sg71
g2641
sg64
(lp2795
g57
(g78
g59
NtRp2796
(dp2797
g62
(dp2798
g82
g83
ssg71
g2792
sg64
(lp2799
S'HTTP_CONNECTION'
p2800
asbag57
(g78
g59
NtRp2801
(dp2802
g62
(dp2803
g89
g90
ssg71
g2792
sg64
(lp2804
S':'
asbag57
(g78
g59
NtRp2805
(dp2806
g62
(dp2807
sg71
g2792
sg64
(lp2808
g57
(g58
g59
NtRp2809
(dp2810
g62
(dp2811
g70
I3
ssg71
g2805
sg64
(lp2812
g1157
asbasbasbag57
(g73
g59
NtRp2813
(dp2814
g62
(dp2815
sg71
g2641
sg64
(lp2816
g57
(g78
g59
NtRp2817
(dp2818
g62
(dp2819
g82
g83
ssg71
g2813
sg64
(lp2820
S'HTTP_CONTENT_LENGTH'
p2821
asbag57
(g78
g59
NtRp2822
(dp2823
g62
(dp2824
g89
g90
ssg71
g2813
sg64
(lp2825
S':'
asbag57
(g78
g59
NtRp2826
(dp2827
g62
(dp2828
sg71
g2813
sg64
(lp2829
g57
(g58
g59
NtRp2830
(dp2831
g62
(dp2832
g70
I3
ssg71
g2826
sg64
(lp2833
g938
asbasbasbag57
(g73
g59
NtRp2834
(dp2835
g62
(dp2836
sg71
g2641
sg64
(lp2837
g57
(g78
g59
NtRp2838
(dp2839
g62
(dp2840
g82
g83
ssg71
g2834
sg64
(lp2841
S'HTTP_CONTENT_TYPE'
p2842
asbag57
(g78
g59
NtRp2843
(dp2844
g62
(dp2845
g89
g90
ssg71
g2834
sg64
(lp2846
S':'
asbag57
(g78
g59
NtRp2847
(dp2848
g62
(dp2849
sg71
g2834
sg64
(lp2850
g57
(g58
g59
NtRp2851
(dp2852
g62
(dp2853
g70
I3
ssg71
g2847
sg64
(lp2854
g960
asbasbasbag57
(g73
g59
NtRp2855
(dp2856
g62
(dp2857
sg71
g2641
sg64
(lp2858
g57
(g78
g59
NtRp2859
(dp2860
g62
(dp2861
g82
g83
ssg71
g2855
sg64
(lp2862
S'HTTP_COOKIE'
p2863
asbag57
(g78
g59
NtRp2864
(dp2865
g62
(dp2866
g89
g90
ssg71
g2855
sg64
(lp2867
S':'
asbag57
(g78
g59
NtRp2868
(dp2869
g62
(dp2870
sg71
g2855
sg64
(lp2871
g57
(g58
g59
NtRp2872
(dp2873
g62
(dp2874
g70
I3
ssg71
g2868
sg64
(lp2875
g1221
asbasbasbag57
(g73
g59
NtRp2876
(dp2877
g62
(dp2878
sg71
g2641
sg64
(lp2879
g57
(g78
g59
NtRp2880
(dp2881
g62
(dp2882
g82
g83
ssg71
g2876
sg64
(lp2883
S'HTTP_HOST'
p2884
asbag57
(g78
g59
NtRp2885
(dp2886
g62
(dp2887
g89
g90
ssg71
g2876
sg64
(lp2888
S':'
asbag57
(g78
g59
NtRp2889
(dp2890
g62
(dp2891
sg71
g2876
sg64
(lp2892
g57
(g58
g59
NtRp2893
(dp2894
g62
(dp2895
g70
I3
ssg71
g2889
sg64
(lp2896
g1243
asbasbasbag57
(g73
g59
NtRp2897
(dp2898
g62
(dp2899
sg71
g2641
sg64
(lp2900
g57
(g78
g59
NtRp2901
(dp2902
g62
(dp2903
g82
g83
ssg71
g2897
sg64
(lp2904
S'HTTP_ORIGIN'
p2905
asbag57
(g78
g59
NtRp2906
(dp2907
g62
(dp2908
g89
g90
ssg71
g2897
sg64
(lp2909
S':'
asbag57
(g78
g59
NtRp2910
(dp2911
g62
(dp2912
sg71
g2897
sg64
(lp2913
g57
(g58
g59
NtRp2914
(dp2915
g62
(dp2916
g70
I3
ssg71
g2910
sg64
(lp2917
g1265
asbasbasbag57
(g73
g59
NtRp2918
(dp2919
g62
(dp2920
sg71
g2641
sg64
(lp2921
g57
(g78
g59
NtRp2922
(dp2923
g62
(dp2924
g82
g83
ssg71
g2918
sg64
(lp2925
S'HTTP_REFERER'
p2926
asbag57
(g78
g59
NtRp2927
(dp2928
g62
(dp2929
g89
g90
ssg71
g2918
sg64
(lp2930
S':'
asbag57
(g78
g59
NtRp2931
(dp2932
g62
(dp2933
sg71
g2918
sg64
(lp2934
g57
(g58
g59
NtRp2935
(dp2936
g62
(dp2937
g70
I3
ssg71
g2931
sg64
(lp2938
g1287
asbasbasbag57
(g73
g59
NtRp2939
(dp2940
g62
(dp2941
sg71
g2641
sg64
(lp2942
g57
(g78
g59
NtRp2943
(dp2944
g62
(dp2945
g82
g83
ssg71
g2939
sg64
(lp2946
S'HTTP_USER_AGENT'
p2947
asbag57
(g78
g59
NtRp2948
(dp2949
g62
(dp2950
g89
g90
ssg71
g2939
sg64
(lp2951
S':'
asbag57
(g78
g59
NtRp2952
(dp2953
g62
(dp2954
sg71
g2939
sg64
(lp2955
g57
(g58
g59
NtRp2956
(dp2957
g62
(dp2958
g70
I3
ssg71
g2952
sg64
(lp2959
g1309
asbasbasbag57
(g73
g59
NtRp2960
(dp2961
g62
(dp2962
sg71
g2641
sg64
(lp2963
g57
(g78
g59
NtRp2964
(dp2965
g62
(dp2966
g82
g83
ssg71
g2960
sg64
(lp2967
S'PATH_INFO'
p2968
asbag57
(g78
g59
NtRp2969
(dp2970
g62
(dp2971
g89
g90
ssg71
g2960
sg64
(lp2972
S':'
asbag57
(g78
g59
NtRp2973
(dp2974
g62
(dp2975
sg71
g2960
sg64
(lp2976
g57
(g58
g59
NtRp2977
(dp2978
g62
(dp2979
g70
I3
ssg71
g2973
sg64
(lp2980
g1373
asbasbasbag57
(g73
g59
NtRp2981
(dp2982
g62
(dp2983
sg71
g2641
sg64
(lp2984
g57
(g78
g59
NtRp2985
(dp2986
g62
(dp2987
g82
g83
ssg71
g2981
sg64
(lp2988
S'QUERY_STRING'
p2989
asbag57
(g78
g59
NtRp2990
(dp2991
g62
(dp2992
g89
g90
ssg71
g2981
sg64
(lp2993
S':'
asbag57
(g78
g59
NtRp2994
(dp2995
g62
(dp2996
sg71
g2981
sg64
(lp2997
g57
(g58
g59
NtRp2998
(dp2999
g62
(dp3000
g70
I3
ssg71
g2994
sg64
(lp3001
S''
asbasbasbag57
(g73
g59
NtRp3002
(dp3003
g62
(dp3004
sg71
g2641
sg64
(lp3005
g57
(g78
g59
NtRp3006
(dp3007
g62
(dp3008
g82
g83
ssg71
g3002
sg64
(lp3009
S'REMOTE_ADDR'
p3010
asbag57
(g78
g59
NtRp3011
(dp3012
g62
(dp3013
g89
g90
ssg71
g3002
sg64
(lp3014
S':'
asbag57
(g78
g59
NtRp3015
(dp3016
g62
(dp3017
sg71
g3002
sg64
(lp3018
g57
(g58
g59
NtRp3019
(dp3020
g62
(dp3021
g70
I3
ssg71
g3015
sg64
(lp3022
g190
asbasbasbag57
(g73
g59
NtRp3023
(dp3024
g62
(dp3025
sg71
g2641
sg64
(lp3026
g57
(g78
g59
NtRp3027
(dp3028
g62
(dp3029
g82
g83
ssg71
g3023
sg64
(lp3030
S'REMOTE_PORT'
p3031
asbag57
(g78
g59
NtRp3032
(dp3033
g62
(dp3034
g89
g90
ssg71
g3023
sg64
(lp3035
S':'
asbag57
(g78
g59
NtRp3036
(dp3037
g62
(dp3038
sg71
g3023
sg64
(lp3039
g57
(g58
g59
NtRp3040
(dp3041
g62
(dp3042
g70
I3
ssg71
g3036
sg64
(lp3043
g1437
asbasbasbag57
(g73
g59
NtRp3044
(dp3045
g62
(dp3046
sg71
g2641
sg64
(lp3047
g57
(g78
g59
NtRp3048
(dp3049
g62
(dp3050
g82
g83
ssg71
g3044
sg64
(lp3051
S'REQUEST_METHOD'
p3052
asbag57
(g78
g59
NtRp3053
(dp3054
g62
(dp3055
g89
g90
ssg71
g3044
sg64
(lp3056
S':'
asbag57
(g78
g59
NtRp3057
(dp3058
g62
(dp3059
sg71
g3044
sg64
(lp3060
g57
(g58
g59
NtRp3061
(dp3062
g62
(dp3063
g70
I3
ssg71
g3057
sg64
(lp3064
g1459
asbasbasbag57
(g73
g59
NtRp3065
(dp3066
g62
(dp3067
sg71
g2641
sg64
(lp3068
g57
(g78
g59
NtRp3069
(dp3070
g62
(dp3071
g82
g83
ssg71
g3065
sg64
(lp3072
S'SCRIPT_NAME'
p3073
asbag57
(g78
g59
NtRp3074
(dp3075
g62
(dp3076
g89
g90
ssg71
g3065
sg64
(lp3077
S':'
asbag57
(g78
g59
NtRp3078
(dp3079
g62
(dp3080
sg71
g3065
sg64
(lp3081
g57
(g58
g59
NtRp3082
(dp3083
g62
(dp3084
g70
I3
ssg71
g3078
sg64
(lp3085
S''
asbasbasbag57
(g73
g59
NtRp3086
(dp3087
g62
(dp3088
sg71
g2641
sg64
(lp3089
g57
(g78
g59
NtRp3090
(dp3091
g62
(dp3092
g82
g83
ssg71
g3086
sg64
(lp3093
S'SERVER_NAME'
p3094
asbag57
(g78
g59
NtRp3095
(dp3096
g62
(dp3097
g89
g90
ssg71
g3086
sg64
(lp3098
S':'
asbag57
(g78
g59
NtRp3099
(dp3100
g62
(dp3101
sg71
g3086
sg64
(lp3102
g57
(g58
g59
NtRp3103
(dp3104
g62
(dp3105
g70
I3
ssg71
g3099
sg64
(lp3106
g1502
asbasbasbag57
(g73
g59
NtRp3107
(dp3108
g62
(dp3109
sg71
g2641
sg64
(lp3110
g57
(g78
g59
NtRp3111
(dp3112
g62
(dp3113
g82
g83
ssg71
g3107
sg64
(lp3114
S'SERVER_PORT'
p3115
asbag57
(g78
g59
NtRp3116
(dp3117
g62
(dp3118
g89
g90
ssg71
g3107
sg64
(lp3119
S':'
asbag57
(g78
g59
NtRp3120
(dp3121
g62
(dp3122
sg71
g3107
sg64
(lp3123
g57
(g58
g59
NtRp3124
(dp3125
g62
(dp3126
g70
I3
ssg71
g3120
sg64
(lp3127
g1524
asbasbasbag57
(g73
g59
NtRp3128
(dp3129
g62
(dp3130
sg71
g2641
sg64
(lp3131
g57
(g78
g59
NtRp3132
(dp3133
g62
(dp3134
g82
g83
ssg71
g3128
sg64
(lp3135
S'SERVER_PROTOCOL'
p3136
asbag57
(g78
g59
NtRp3137
(dp3138
g62
(dp3139
g89
g90
ssg71
g3128
sg64
(lp3140
S':'
asbag57
(g78
g59
NtRp3141
(dp3142
g62
(dp3143
sg71
g3128
sg64
(lp3144
g57
(g58
g59
NtRp3145
(dp3146
g62
(dp3147
g70
I3
ssg71
g3141
sg64
(lp3148
g1546
asbasbasbag57
(g73
g59
NtRp3149
(dp3150
g62
(dp3151
sg71
g2641
sg64
(lp3152
g57
(g78
g59
NtRp3153
(dp3154
g62
(dp3155
g82
g83
ssg71
g3149
sg64
(lp3156
S'SERVER_SOFTWARE'
p3157
asbag57
(g78
g59
NtRp3158
(dp3159
g62
(dp3160
g89
g90
ssg71
g3149
sg64
(lp3161
S':'
asbag57
(g78
g59
NtRp3162
(dp3163
g62
(dp3164
sg71
g3149
sg64
(lp3165
g57
(g58
g59
NtRp3166
(dp3167
g62
(dp3168
g70
I3
ssg71
g3162
sg64
(lp3169
g1568
asbasbasbag57
(g73
g59
NtRp3170
(dp3171
g62
(dp3172
sg71
g2641
sg64
(lp3173
g57
(g78
g59
NtRp3174
(dp3175
g62
(dp3176
g82
g83
ssg71
g3170
sg64
(lp3177
S'wsgi.errors'
p3178
asbag57
(g78
g59
NtRp3179
(dp3180
g62
(dp3181
g89
g90
ssg71
g3170
sg64
(lp3182
S':'
asbag57
(g78
g59
NtRp3183
(dp3184
g62
(dp3185
sg71
g3170
sg64
(lp3186
g57
(g58
g59
NtRp3187
(dp3188
g62
(dp3189
g70
I3
ssg71
g3183
sg64
(lp3190
S"<open file '<stderr>', mode 'w' at 0x012A50D0>"
p3191
asbasbasbag57
(g73
g59
NtRp3192
(dp3193
g62
(dp3194
sg71
g2641
sg64
(lp3195
g57
(g78
g59
NtRp3196
(dp3197
g62
(dp3198
g82
g83
ssg71
g3192
sg64
(lp3199
S'wsgi.file_wrapper'
p3200
asbag57
(g78
g59
NtRp3201
(dp3202
g62
(dp3203
g89
g90
ssg71
g3192
sg64
(lp3204
S':'
asbag57
(g78
g59
NtRp3205
(dp3206
g62
(dp3207
sg71
g3192
sg64
(lp3208
g57
(g58
g59
NtRp3209
(dp3210
g62
(dp3211
g70
I3
ssg71
g3205
sg64
(lp3212
S'<class wsgiref.util.FileWrapper at 0x029409D0>'
p3213
asbasbasbag57
(g73
g59
NtRp3214
(dp3215
g62
(dp3216
sg71
g2641
sg64
(lp3217
g57
(g78
g59
NtRp3218
(dp3219
g62
(dp3220
g82
g83
ssg71
g3214
sg64
(lp3221
S'wsgi.input'
p3222
asbag57
(g78
g59
NtRp3223
(dp3224
g62
(dp3225
g89
g90
ssg71
g3214
sg64
(lp3226
S':'
asbag57
(g78
g59
NtRp3227
(dp3228
g62
(dp3229
sg71
g3214
sg64
(lp3230
g57
(g58
g59
NtRp3231
(dp3232
g62
(dp3233
g70
I3
ssg71
g3227
sg64
(lp3234
S"<open file '<fdopen>', mode 'w+b' at 0x0279DC28>"
p3235
asbasbasbag57
(g73
g59
NtRp3236
(dp3237
g62
(dp3238
sg71
g2641
sg64
(lp3239
g57
(g78
g59
NtRp3240
(dp3241
g62
(dp3242
g82
g83
ssg71
g3236
sg64
(lp3243
S'wsgi.multiprocess'
p3244
asbag57
(g78
g59
NtRp3245
(dp3246
g62
(dp3247
g89
g90
ssg71
g3236
sg64
(lp3248
S':'
asbag57
(g78
g59
NtRp3249
(dp3250
g62
(dp3251
sg71
g3236
sg64
(lp3252
g57
(g58
g59
NtRp3253
(dp3254
g62
(dp3255
g70
I3
ssg71
g3249
sg64
(lp3256
g100
asbasbasbag57
(g73
g59
NtRp3257
(dp3258
g62
(dp3259
sg71
g2641
sg64
(lp3260
g57
(g78
g59
NtRp3261
(dp3262
g62
(dp3263
g82
g83
ssg71
g3257
sg64
(lp3264
S'wsgi.multithread'
p3265
asbag57
(g78
g59
NtRp3266
(dp3267
g62
(dp3268
g89
g90
ssg71
g3257
sg64
(lp3269
S':'
asbag57
(g78
g59
NtRp3270
(dp3271
g62
(dp3272
sg71
g3257
sg64
(lp3273
g57
(g58
g59
NtRp3274
(dp3275
g62
(dp3276
g70
I3
ssg71
g3270
sg64
(lp3277
g1808
asbasbasbag57
(g73
g59
NtRp3278
(dp3279
g62
(dp3280
sg71
g2641
sg64
(lp3281
g57
(g78
g59
NtRp3282
(dp3283
g62
(dp3284
g82
g83
ssg71
g3278
sg64
(lp3285
S'wsgi.run_once'
p3286
asbag57
(g78
g59
NtRp3287
(dp3288
g62
(dp3289
g89
g90
ssg71
g3278
sg64
(lp3290
S':'
asbag57
(g78
g59
NtRp3291
(dp3292
g62
(dp3293
sg71
g3278
sg64
(lp3294
g57
(g58
g59
NtRp3295
(dp3296
g62
(dp3297
g70
I3
ssg71
g3291
sg64
(lp3298
g100
asbasbasbag57
(g73
g59
NtRp3299
(dp3300
g62
(dp3301
sg71
g2641
sg64
(lp3302
g57
(g78
g59
NtRp3303
(dp3304
g62
(dp3305
g82
g83
ssg71
g3299
sg64
(lp3306
S'wsgi.url_scheme'
p3307
asbag57
(g78
g59
NtRp3308
(dp3309
g62
(dp3310
g89
g90
ssg71
g3299
sg64
(lp3311
S':'
asbag57
(g78
g59
NtRp3312
(dp3313
g62
(dp3314
sg71
g3299
sg64
(lp3315
g57
(g58
g59
NtRp3316
(dp3317
g62
(dp3318
g70
I3
ssg71
g3312
sg64
(lp3319
g1851
asbasbasbag57
(g73
g59
NtRp3320
(dp3321
g62
(dp3322
sg71
g2641
sg64
(lp3323
g57
(g78
g59
NtRp3324
(dp3325
g62
(dp3326
g82
g83
ssg71
g3320
sg64
(lp3327
S'wsgi.version'
p3328
asbag57
(g78
g59
NtRp3329
(dp3330
g62
(dp3331
g89
g90
ssg71
g3320
sg64
(lp3332
S':'
asbag57
(g78
g59
NtRp3333
(dp3334
g62
(dp3335
sg71
g3320
sg64
(lp3336
g57
(g58
g59
NtRp3337
(dp3338
g62
(dp3339
g70
I3
ssg71
g3333
sg64
(lp3340
S'1'
asbasbasbasbasbasbasbasbasbasbasbasbasbsS'frames'
p3341
(lp3342
(dp3343
S'file'
p3344
S'E:\\Programming\\Python\\web2py\\gluon\\restricted.py'
p3345
sS'dump'
p3346
(dp3347
S'environment'
p3348
S"{'A': <class 'gluon.html.A'>, 'Auth': <class 'gluon.tools.Auth'>, 'B': <class 'gluon.html.B'>, 'BEAUTIFY': <class 'gluon.html.BEAUTIFY'>, 'BODY': <class 'gluon.html.BODY'>, 'BR': <class 'gluon.html.BR'>, 'BUTTON': <class 'gluon.html.BUTTON'>, 'CAT': <class 'gluon.html.CAT'>, 'CENTER': <class 'gluon.html.CENTER'>, 'CLEANUP': <class 'gluon.validators.CLEANUP'>, ...}"
p3349
sS'ccode'
p3350
S'<code object <module> at 027AA218, file "E:\\Prog...ications\\vote_up\\controllers/default.py", line 1>'
p3351
ssS'lnum'
p3352
I204
sS'lines'
p3353
(dp3354
I199
S'    try:'
p3355
sI200
S'        if type(code) == types.CodeType:'
p3356
sI201
S'            ccode = code'
p3357
sI202
S'        else:'
p3358
sI203
S'            ccode = compile2(code,layer)'
p3359
sI204
S'        exec ccode in environment'
p3360
sI205
S'    except HTTP:'
p3361
sI206
S'        raise'
p3362
sI207
S'    except RestrictedError:'
p3363
sI208
S'        # do not encapsulate (obfuscate) the original RestrictedError'
p3364
ssS'call'
p3365
S'(code="def index():\\n    \'\'\'Display a post, its comments...ndex()\\nresponse._vars=response._caller(new_post)\\n", environment={\'A\': <class \'gluon.html.A\'>, \'Auth\': <class \'gluon.tools.Auth\'>, \'B\': <class \'gluon.html.B\'>, \'BEAUTIFY\': <class \'gluon.html.BEAUTIFY\'>, \'BODY\': <class \'gluon.html.BODY\'>, \'BR\': <class \'gluon.html.BR\'>, \'BUTTON\': <class \'gluon.html.BUTTON\'>, \'CAT\': <class \'gluon.html.CAT\'>, \'CENTER\': <class \'gluon.html.CENTER\'>, \'CLEANUP\': <class \'gluon.validators.CLEANUP\'>, ...}, layer=r\'E:\\Programming\\Python\\web2py\\applications\\vote_up\\controllers/default.py\')'
p3366
sS'func'
p3367
S'restricted'
p3368
sa(dp3369
g3344
S'E:\\Programming\\Python\\web2py\\applications\\vote_up\\controllers\\default.py'
p3370
sg3346
(dp3371
sg3352
I14
sg3353
(dp3372
I4
S"    return response.render('default/index.html', locals())"
p3373
sI5
S''
sI6
S'def new_post():'
p3374
sI7
S"    '''Accept a new post'''"
p3375
sI8
S'    post_id = db.posts.insert('
p3376
sI9
S'        title = request.vars["title"],'
p3377
sI10
S'        message = request.vars["message"]'
p3378
sI11
S'    )'
p3379
sI12
S'    self.post = db.posts[post_id]'
p3380
sI13
S'    return index()'
p3381
ssg3365
S'()'
p3382
sg3367
S'<module>'
p3383
sa(dp3384
g3344
S'E:\\Programming\\Python\\web2py\\gluon\\globals.py'
p3385
sg3346
(dp3386
S'self'
p3387
S'undefined'
p3388
sS'f'
S'<function new_post>'
p3389
ssg3352
I172
sg3353
(dp3390
I167
S'        self.meta = Storage()      # used by web2py_ajax.html'
p3391
sI168
S'        self.menu = []             # used by the default view layout'
p3392
sI169
S'        self.files = []            # used by web2py_ajax.html'
p3393
sI170
S'        self.generic_patterns = [] # patterns to allow generic views'
p3394
sI171
S'        self._vars = None'
p3395
sI172
S'        self._caller = lambda f: f()'
p3396
sI173
S'        self._view_environment = None'
p3397
sI174
S'        self._custom_commit = None'
p3398
sI175
S'        self._custom_rollback = None'
p3399
sI176
S''
ssg3365
S'(f=<function new_post>)'
p3400
sg3367
S'<lambda>'
p3401
sa(dp3402
g3344
S'E:\\Programming\\Python\\web2py\\applications\\vote_up\\controllers\\default.py'
p3403
sg3346
(dp3404
S'global db'
p3405
S"<DAL {'auth_event': <Table {'origin': <gluon.dal...'_id': <gluon.dal.Field object at 0x02F0A6F0>}>}>"
p3406
sS'post_id'
p3407
S'1'
sS'self'
p3408
g3388
sS'db.posts'
p3409
S"<Table {'votes': <gluon.dal.Field object at 0x02...eld object at 0x02F0A790>, '_singular': 'Posts'}>"
p3410
ssg3352
I12
sg3353
(dp3411
I4
S"    return response.render('default/index.html', locals())"
p3412
sI5
S''
sI6
S'def new_post():'
p3413
sI7
S"    '''Accept a new post'''"
p3414
sI8
S'    post_id = db.posts.insert('
p3415
sI9
S'        title = request.vars["title"],'
p3416
sI10
S'        message = request.vars["message"]'
p3417
sI11
S'    )'
p3418
sI12
S'    self.post = db.posts[post_id]'
p3419
sI13
S'    return index()'
p3420
ssg3365
S'()'
p3421
sg3367
S'new_post'
p3422
sasS'pyver'
p3423
S'Python 2.7.2: C:\\Python27\\python.exe'
p3424
sS'session'
p3425
g57
(g58
g59
NtRp3426
(dp3427
g62
(dp3428
sg64
(lp3429
g57
(g66
g59
NtRp3430
(dp3431
g62
(dp3432
g70
I5
ssg71
Nsg64
(lp3433
sbasbsS'etype'
p3434
S"<type 'exceptions.NameError'>"
p3435
sS'date'
p3436
S'Mon Feb 13 14:49:39 2012'
p3437
sS'response'
p3438
g57
(g58
g59
NtRp3439
(dp3440
g62
(dp3441
sg64
(lp3442
g57
(g66
g59
NtRp3443
(dp3444
g62
(dp3445
g70
I5
ssg71
Nsg64
(lp3446
g57
(g73
g59
NtRp3447
(dp3448
g62
(dp3449
sg71
g3443
sg64
(lp3450
g57
(g78
g59
NtRp3451
(dp3452
g62
(dp3453
g82
g83
ssg71
g3447
sg64
(lp3454
g155
asbag57
(g78
g59
NtRp3455
(dp3456
g62
(dp3457
g89
g90
ssg71
g3447
sg64
(lp3458
S':'
asbag57
(g78
g59
NtRp3459
(dp3460
g62
(dp3461
sg71
g3447
sg64
(lp3462
g57
(g58
g59
NtRp3463
(dp3464
g62
(dp3465
g70
I5
ssg71
g3459
sg64
(lp3466
S'<cStringIO.StringO object at 0x02E788C0>'
p3467
asbasbasbag57
(g73
g59
NtRp3468
(dp3469
g62
(dp3470
sg71
g3443
sg64
(lp3471
g57
(g78
g59
NtRp3472
(dp3473
g62
(dp3474
g82
g83
ssg71
g3468
sg64
(lp3475
g221
asbag57
(g78
g59
NtRp3476
(dp3477
g62
(dp3478
g89
g90
ssg71
g3468
sg64
(lp3479
S':'
asbag57
(g78
g59
NtRp3480
(dp3481
g62
(dp3482
sg71
g3468
sg64
(lp3483
g57
(g58
g59
NtRp3484
(dp3485
g62
(dp3486
g70
I5
ssg71
g3480
sg64
(lp3487
g57
(g66
g59
NtRp3488
(dp3489
g62
(dp3490
g70
I4
ssg71
Nsg64
(lp3491
g57
(g73
g59
NtRp3492
(dp3493
g62
(dp3494
sg71
g3488
sg64
(lp3495
g57
(g78
g59
NtRp3496
(dp3497
g62
(dp3498
g82
g83
ssg71
g3492
sg64
(lp3499
S'session_id_vote_up'
p3500
asbag57
(g78
g59
NtRp3501
(dp3502
g62
(dp3503
g89
g90
ssg71
g3492
sg64
(lp3504
S':'
asbag57
(g78
g59
NtRp3505
(dp3506
g62
(dp3507
sg71
g3492
sg64
(lp3508
g57
(g58
g59
NtRp3509
(dp3510
g62
(dp3511
g70
I4
ssg71
g3505
sg64
(lp3512
g57
(g66
g59
NtRp3513
(dp3514
g62
(dp3515
g70
I3
ssg71
Nsg64
(lp3516
g57
(g73
g59
NtRp3517
(dp3518
g62
(dp3519
sg71
g3513
sg64
(lp3520
g57
(g78
g59
NtRp3521
(dp3522
g62
(dp3523
g82
g83
ssg71
g3517
sg64
(lp3524
g271
asbag57
(g78
g59
NtRp3525
(dp3526
g62
(dp3527
g89
g90
ssg71
g3517
sg64
(lp3528
S':'
asbag57
(g78
g59
NtRp3529
(dp3530
g62
(dp3531
sg71
g3517
sg64
(lp3532
g57
(g58
g59
NtRp3533
(dp3534
g62
(dp3535
g70
I3
ssg71
g3529
sg64
(lp3536
S''
asbasbasbag57
(g73
g59
NtRp3537
(dp3538
g62
(dp3539
sg71
g3513
sg64
(lp3540
g57
(g78
g59
NtRp3541
(dp3542
g62
(dp3543
g82
g83
ssg71
g3537
sg64
(lp3544
g292
asbag57
(g78
g59
NtRp3545
(dp3546
g62
(dp3547
g89
g90
ssg71
g3537
sg64
(lp3548
S':'
asbag57
(g78
g59
NtRp3549
(dp3550
g62
(dp3551
sg71
g3537
sg64
(lp3552
g57
(g58
g59
NtRp3553
(dp3554
g62
(dp3555
g70
I3
ssg71
g3549
sg64
(lp3556
S''
asbasbasbag57
(g73
g59
NtRp3557
(dp3558
g62
(dp3559
sg71
g3513
sg64
(lp3560
g57
(g78
g59
NtRp3561
(dp3562
g62
(dp3563
g82
g83
ssg71
g3557
sg64
(lp3564
g313
asbag57
(g78
g59
NtRp3565
(dp3566
g62
(dp3567
g89
g90
ssg71
g3557
sg64
(lp3568
S':'
asbag57
(g78
g59
NtRp3569
(dp3570
g62
(dp3571
sg71
g3557
sg64
(lp3572
g57
(g58
g59
NtRp3573
(dp3574
g62
(dp3575
g70
I3
ssg71
g3569
sg64
(lp3576
S''
asbasbasbag57
(g73
g59
NtRp3577
(dp3578
g62
(dp3579
sg71
g3513
sg64
(lp3580
g57
(g78
g59
NtRp3581
(dp3582
g62
(dp3583
g82
g83
ssg71
g3577
sg64
(lp3584
g334
asbag57
(g78
g59
NtRp3585
(dp3586
g62
(dp3587
g89
g90
ssg71
g3577
sg64
(lp3588
S':'
asbag57
(g78
g59
NtRp3589
(dp3590
g62
(dp3591
sg71
g3577
sg64
(lp3592
g57
(g58
g59
NtRp3593
(dp3594
g62
(dp3595
g70
I3
ssg71
g3589
sg64
(lp3596
S''
asbasbasbag57
(g73
g59
NtRp3597
(dp3598
g62
(dp3599
sg71
g3513
sg64
(lp3600
g57
(g78
g59
NtRp3601
(dp3602
g62
(dp3603
g82
g83
ssg71
g3597
sg64
(lp3604
g355
asbag57
(g78
g59
NtRp3605
(dp3606
g62
(dp3607
g89
g90
ssg71
g3597
sg64
(lp3608
S':'
asbag57
(g78
g59
NtRp3609
(dp3610
g62
(dp3611
sg71
g3597
sg64
(lp3612
g57
(g58
g59
NtRp3613
(dp3614
g62
(dp3615
g70
I3
ssg71
g3609
sg64
(lp3616
S''
asbasbasbag57
(g73
g59
NtRp3617
(dp3618
g62
(dp3619
sg71
g3513
sg64
(lp3620
g57
(g78
g59
NtRp3621
(dp3622
g62
(dp3623
g82
g83
ssg71
g3617
sg64
(lp3624
g376
asbag57
(g78
g59
NtRp3625
(dp3626
g62
(dp3627
g89
g90
ssg71
g3617
sg64
(lp3628
S':'
asbag57
(g78
g59
NtRp3629
(dp3630
g62
(dp3631
sg71
g3617
sg64
(lp3632
g57
(g58
g59
NtRp3633
(dp3634
g62
(dp3635
g70
I3
ssg71
g3629
sg64
(lp3636
S'/'
asbasbasbag57
(g73
g59
NtRp3637
(dp3638
g62
(dp3639
sg71
g3513
sg64
(lp3640
g57
(g78
g59
NtRp3641
(dp3642
g62
(dp3643
g82
g83
ssg71
g3637
sg64
(lp3644
g397
asbag57
(g78
g59
NtRp3645
(dp3646
g62
(dp3647
g89
g90
ssg71
g3637
sg64
(lp3648
S':'
asbag57
(g78
g59
NtRp3649
(dp3650
g62
(dp3651
sg71
g3637
sg64
(lp3652
g57
(g58
g59
NtRp3653
(dp3654
g62
(dp3655
g70
I3
ssg71
g3649
sg64
(lp3656
S''
asbasbasbag57
(g73
g59
NtRp3657
(dp3658
g62
(dp3659
sg71
g3513
sg64
(lp3660
g57
(g78
g59
NtRp3661
(dp3662
g62
(dp3663
g82
g83
ssg71
g3657
sg64
(lp3664
g418
asbag57
(g78
g59
NtRp3665
(dp3666
g62
(dp3667
g89
g90
ssg71
g3657
sg64
(lp3668
S':'
asbag57
(g78
g59
NtRp3669
(dp3670
g62
(dp3671
sg71
g3657
sg64
(lp3672
g57
(g58
g59
NtRp3673
(dp3674
g62
(dp3675
g70
I3
ssg71
g3669
sg64
(lp3676
S''
asbasbasbasbasbasbasbasbasbasbasbag57
(g73
g59
NtRp3677
(dp3678
g62
(dp3679
sg71
g3443
sg64
(lp3680
g57
(g78
g59
NtRp3681
(dp3682
g62
(dp3683
g82
g83
ssg71
g3677
sg64
(lp3684
S'files'
p3685
asbag57
(g78
g59
NtRp3686
(dp3687
g62
(dp3688
g89
g90
ssg71
g3677
sg64
(lp3689
S':'
asbag57
(g78
g59
NtRp3690
(dp3691
g62
(dp3692
sg71
g3677
sg64
(lp3693
g57
(g58
g59
NtRp3694
(dp3695
g62
(dp3696
g70
I5
ssg71
g3690
sg64
(lp3697
g57
(g66
g59
NtRp3698
(dp3699
g62
(dp3700
g70
I4
ssg71
Nsg64
(lp3701
sbasbasbasbag57
(g73
g59
NtRp3702
(dp3703
g62
(dp3704
sg71
g3443
sg64
(lp3705
g57
(g78
g59
NtRp3706
(dp3707
g62
(dp3708
g82
g83
ssg71
g3702
sg64
(lp3709
S'flash'
p3710
asbag57
(g78
g59
NtRp3711
(dp3712
g62
(dp3713
g89
g90
ssg71
g3702
sg64
(lp3714
S':'
asbag57
(g78
g59
NtRp3715
(dp3716
g62
(dp3717
sg71
g3702
sg64
(lp3718
g57
(g58
g59
NtRp3719
(dp3720
g62
(dp3721
g70
I5
ssg71
g3715
sg64
(lp3722
S''
asbasbasbag57
(g73
g59
NtRp3723
(dp3724
g62
(dp3725
sg71
g3443
sg64
(lp3726
g57
(g78
g59
NtRp3727
(dp3728
g62
(dp3729
g82
g83
ssg71
g3723
sg64
(lp3730
S'generic_patterns'
p3731
asbag57
(g78
g59
NtRp3732
(dp3733
g62
(dp3734
g89
g90
ssg71
g3723
sg64
(lp3735
S':'
asbag57
(g78
g59
NtRp3736
(dp3737
g62
(dp3738
sg71
g3723
sg64
(lp3739
g57
(g58
g59
NtRp3740
(dp3741
g62
(dp3742
g70
I5
ssg71
g3736
sg64
(lp3743
g57
(g66
g59
NtRp3744
(dp3745
g62
(dp3746
g70
I4
ssg71
Nsg64
(lp3747
g57
(g73
g59
NtRp3748
(dp3749
g62
(dp3750
sg71
g3744
sg64
(lp3751
g57
(g78
g59
NtRp3752
(dp3753
g62
(dp3754
sg71
g3748
sg64
(lp3755
g57
(g58
g59
NtRp3756
(dp3757
g62
(dp3758
g70
I4
ssg71
g3752
sg64
(lp3759
S'*'
asbasbasbasbasbasbasbag57
(g73
g59
NtRp3760
(dp3761
g62
(dp3762
sg71
g3443
sg64
(lp3763
g57
(g78
g59
NtRp3764
(dp3765
g62
(dp3766
g82
g83
ssg71
g3760
sg64
(lp3767
S'headers'
p3768
asbag57
(g78
g59
NtRp3769
(dp3770
g62
(dp3771
g89
g90
ssg71
g3760
sg64
(lp3772
S':'
asbag57
(g78
g59
NtRp3773
(dp3774
g62
(dp3775
sg71
g3760
sg64
(lp3776
g57
(g58
g59
NtRp3777
(dp3778
g62
(dp3779
g70
I5
ssg71
g3773
sg64
(lp3780
g57
(g66
g59
NtRp3781
(dp3782
g62
(dp3783
g70
I4
ssg71
Nsg64
(lp3784
g57
(g73
g59
NtRp3785
(dp3786
g62
(dp3787
sg71
g3781
sg64
(lp3788
g57
(g78
g59
NtRp3789
(dp3790
g62
(dp3791
g82
g83
ssg71
g3785
sg64
(lp3792
S'Cache-Control'
p3793
asbag57
(g78
g59
NtRp3794
(dp3795
g62
(dp3796
g89
g90
ssg71
g3785
sg64
(lp3797
S':'
asbag57
(g78
g59
NtRp3798
(dp3799
g62
(dp3800
sg71
g3785
sg64
(lp3801
g57
(g58
g59
NtRp3802
(dp3803
g62
(dp3804
g70
I4
ssg71
g3798
sg64
(lp3805
S'no-store, no-cache, must-revalidate, post-check=0, pre-check=0'
p3806
asbasbasbag57
(g73
g59
NtRp3807
(dp3808
g62
(dp3809
sg71
g3781
sg64
(lp3810
g57
(g78
g59
NtRp3811
(dp3812
g62
(dp3813
g82
g83
ssg71
g3807
sg64
(lp3814
S'Content-Type'
p3815
asbag57
(g78
g59
NtRp3816
(dp3817
g62
(dp3818
g89
g90
ssg71
g3807
sg64
(lp3819
S':'
asbag57
(g78
g59
NtRp3820
(dp3821
g62
(dp3822
sg71
g3807
sg64
(lp3823
g57
(g58
g59
NtRp3824
(dp3825
g62
(dp3826
g70
I4
ssg71
g3820
sg64
(lp3827
S'text/html; charset=utf-8'
p3828
asbasbasbag57
(g73
g59
NtRp3829
(dp3830
g62
(dp3831
sg71
g3781
sg64
(lp3832
g57
(g78
g59
NtRp3833
(dp3834
g62
(dp3835
g82
g83
ssg71
g3829
sg64
(lp3836
S'Expires'
p3837
asbag57
(g78
g59
NtRp3838
(dp3839
g62
(dp3840
g89
g90
ssg71
g3829
sg64
(lp3841
S':'
asbag57
(g78
g59
NtRp3842
(dp3843
g62
(dp3844
sg71
g3829
sg64
(lp3845
g57
(g58
g59
NtRp3846
(dp3847
g62
(dp3848
g70
I4
ssg71
g3842
sg64
(lp3849
S'Mon, 13 Feb 2012 09:19:39 GMT'
p3850
asbasbasbag57
(g73
g59
NtRp3851
(dp3852
g62
(dp3853
sg71
g3781
sg64
(lp3854
g57
(g78
g59
NtRp3855
(dp3856
g62
(dp3857
g82
g83
ssg71
g3851
sg64
(lp3858
S'Pragma'
p3859
asbag57
(g78
g59
NtRp3860
(dp3861
g62
(dp3862
g89
g90
ssg71
g3851
sg64
(lp3863
S':'
asbag57
(g78
g59
NtRp3864
(dp3865
g62
(dp3866
sg71
g3851
sg64
(lp3867
g57
(g58
g59
NtRp3868
(dp3869
g62
(dp3870
g70
I4
ssg71
g3864
sg64
(lp3871
S'no-cache'
p3872
asbasbasbag57
(g73
g59
NtRp3873
(dp3874
g62
(dp3875
sg71
g3781
sg64
(lp3876
g57
(g78
g59
NtRp3877
(dp3878
g62
(dp3879
g82
g83
ssg71
g3873
sg64
(lp3880
S'X-Powered-By'
p3881
asbag57
(g78
g59
NtRp3882
(dp3883
g62
(dp3884
g89
g90
ssg71
g3873
sg64
(lp3885
S':'
asbag57
(g78
g59
NtRp3886
(dp3887
g62
(dp3888
sg71
g3873
sg64
(lp3889
g57
(g58
g59
NtRp3890
(dp3891
g62
(dp3892
g70
I4
ssg71
g3886
sg64
(lp3893
S'web2py'
p3894
asbasbasbasbasbasbasbag57
(g73
g59
NtRp3895
(dp3896
g62
(dp3897
sg71
g3443
sg64
(lp3898
g57
(g78
g59
NtRp3899
(dp3900
g62
(dp3901
g82
g83
ssg71
g3895
sg64
(lp3902
S'menu'
p3903
asbag57
(g78
g59
NtRp3904
(dp3905
g62
(dp3906
g89
g90
ssg71
g3895
sg64
(lp3907
S':'
asbag57
(g78
g59
NtRp3908
(dp3909
g62
(dp3910
sg71
g3895
sg64
(lp3911
g57
(g58
g59
NtRp3912
(dp3913
g62
(dp3914
g70
I5
ssg71
g3908
sg64
(lp3915
g57
(g66
g59
NtRp3916
(dp3917
g62
(dp3918
g70
I4
ssg71
Nsg64
(lp3919
sbasbasbasbag57
(g73
g59
NtRp3920
(dp3921
g62
(dp3922
sg71
g3443
sg64
(lp3923
g57
(g78
g59
NtRp3924
(dp3925
g62
(dp3926
g82
g83
ssg71
g3920
sg64
(lp3927
S'meta'
p3928
asbag57
(g78
g59
NtRp3929
(dp3930
g62
(dp3931
g89
g90
ssg71
g3920
sg64
(lp3932
S':'
asbag57
(g78
g59
NtRp3933
(dp3934
g62
(dp3935
sg71
g3920
sg64
(lp3936
g57
(g58
g59
NtRp3937
(dp3938
g62
(dp3939
g70
I5
ssg71
g3933
sg64
(lp3940
g57
(g66
g59
NtRp3941
(dp3942
g62
(dp3943
g70
I4
ssg71
Nsg64
(lp3944
sbasbasbasbag57
(g73
g59
NtRp3945
(dp3946
g62
(dp3947
sg71
g3443
sg64
(lp3948
g57
(g78
g59
NtRp3949
(dp3950
g62
(dp3951
g82
g83
ssg71
g3945
sg64
(lp3952
S'postprocessing'
p3953
asbag57
(g78
g59
NtRp3954
(dp3955
g62
(dp3956
g89
g90
ssg71
g3945
sg64
(lp3957
S':'
asbag57
(g78
g59
NtRp3958
(dp3959
g62
(dp3960
sg71
g3945
sg64
(lp3961
g57
(g58
g59
NtRp3962
(dp3963
g62
(dp3964
g70
I5
ssg71
g3958
sg64
(lp3965
g57
(g66
g59
NtRp3966
(dp3967
g62
(dp3968
g70
I4
ssg71
Nsg64
(lp3969
sbasbasbasbag57
(g73
g59
NtRp3970
(dp3971
g62
(dp3972
sg71
g3443
sg64
(lp3973
g57
(g78
g59
NtRp3974
(dp3975
g62
(dp3976
g82
g83
ssg71
g3970
sg64
(lp3977
S'session_filename'
p3978
asbag57
(g78
g59
NtRp3979
(dp3980
g62
(dp3981
g89
g90
ssg71
g3970
sg64
(lp3982
S':'
asbag57
(g78
g59
NtRp3983
(dp3984
g62
(dp3985
sg71
g3970
sg64
(lp3986
g57
(g58
g59
NtRp3987
(dp3988
g62
(dp3989
g70
I5
ssg71
g3983
sg64
(lp3990
S'E:\\Programming\\Python\\web2py\\applications\\vote_up\\sessions\\127.0.0.1-83464b2e-92d9-4e81-8d84-db76dc2fae0f'
p3991
asbasbasbag57
(g73
g59
NtRp3992
(dp3993
g62
(dp3994
sg71
g3443
sg64
(lp3995
g57
(g78
g59
NtRp3996
(dp3997
g62
(dp3998
g82
g83
ssg71
g3992
sg64
(lp3999
S'session_id'
p4000
asbag57
(g78
g59
NtRp4001
(dp4002
g62
(dp4003
g89
g90
ssg71
g3992
sg64
(lp4004
S':'
asbag57
(g78
g59
NtRp4005
(dp4006
g62
(dp4007
sg71
g3992
sg64
(lp4008
g57
(g58
g59
NtRp4009
(dp4010
g62
(dp4011
g70
I5
ssg71
g4005
sg64
(lp4012
S'127.0.0.1-83464b2e-92d9-4e81-8d84-db76dc2fae0f'
p4013
asbasbasbag57
(g73
g59
NtRp4014
(dp4015
g62
(dp4016
sg71
g3443
sg64
(lp4017
g57
(g78
g59
NtRp4018
(dp4019
g62
(dp4020
g82
g83
ssg71
g4014
sg64
(lp4021
S'session_id_name'
p4022
asbag57
(g78
g59
NtRp4023
(dp4024
g62
(dp4025
g89
g90
ssg71
g4014
sg64
(lp4026
S':'
asbag57
(g78
g59
NtRp4027
(dp4028
g62
(dp4029
sg71
g4014
sg64
(lp4030
g57
(g58
g59
NtRp4031
(dp4032
g62
(dp4033
g70
I5
ssg71
g4027
sg64
(lp4034
g3500
asbasbasbag57
(g73
g59
NtRp4035
(dp4036
g62
(dp4037
sg71
g3443
sg64
(lp4038
g57
(g78
g59
NtRp4039
(dp4040
g62
(dp4041
g82
g83
ssg71
g4035
sg64
(lp4042
S'session_new'
p4043
asbag57
(g78
g59
NtRp4044
(dp4045
g62
(dp4046
g89
g90
ssg71
g4035
sg64
(lp4047
S':'
asbag57
(g78
g59
NtRp4048
(dp4049
g62
(dp4050
sg71
g4035
sg64
(lp4051
g57
(g58
g59
NtRp4052
(dp4053
g62
(dp4054
g70
I5
ssg71
g4048
sg64
(lp4055
g1808
asbasbasbag57
(g73
g59
NtRp4056
(dp4057
g62
(dp4058
sg71
g3443
sg64
(lp4059
g57
(g78
g59
NtRp4060
(dp4061
g62
(dp4062
g82
g83
ssg71
g4056
sg64
(lp4063
S'status'
p4064
asbag57
(g78
g59
NtRp4065
(dp4066
g62
(dp4067
g89
g90
ssg71
g4056
sg64
(lp4068
S':'
asbag57
(g78
g59
NtRp4069
(dp4070
g62
(dp4071
sg71
g4056
sg64
(lp4072
g57
(g58
g59
NtRp4073
(dp4074
g62
(dp4075
g70
I5
ssg71
g4069
sg64
(lp4076
S'200'
p4077
asbasbasbag57
(g73
g59
NtRp4078
(dp4079
g62
(dp4080
sg71
g3443
sg64
(lp4081
g57
(g78
g59
NtRp4082
(dp4083
g62
(dp4084
g82
g83
ssg71
g4078
sg64
(lp4085
g2516
asbag57
(g78
g59
NtRp4086
(dp4087
g62
(dp4088
g89
g90
ssg71
g4078
sg64
(lp4089
S':'
asbag57
(g78
g59
NtRp4090
(dp4091
g62
(dp4092
sg71
g4078
sg64
(lp4093
g57
(g58
g59
NtRp4094
(dp4095
g62
(dp4096
g70
I5
ssg71
g4090
sg64
(lp4097
g2529
asbasbasbag57
(g73
g59
NtRp4098
(dp4099
g62
(dp4100
sg71
g3443
sg64
(lp4101
g57
(g78
g59
NtRp4102
(dp4103
g62
(dp4104
g82
g83
ssg71
g4098
sg64
(lp4105
S'view'
p4106
asbag57
(g78
g59
NtRp4107
(dp4108
g62
(dp4109
g89
g90
ssg71
g4098
sg64
(lp4110
S':'
asbag57
(g78
g59
NtRp4111
(dp4112
g62
(dp4113
sg71
g4098
sg64
(lp4114
g57
(g58
g59
NtRp4115
(dp4116
g62
(dp4117
g70
I5
ssg71
g4111
sg64
(lp4118
S'default/new_post.html'
p4119
asbasbasbasbasbsS'locals'
p4120
(dp4121
S'post_id'
p4122
S'1'
sssS'traceback'
p4123
S'Traceback (most recent call last):\n  File "E:\\Programming\\Python\\web2py\\gluon\\restricted.py", line 204, in restricted\n    exec ccode in environment\n  File "E:\\Programming\\Python\\web2py\\applications\\vote_up\\controllers/default.py", line 14, in <module>\n  File "E:\\Programming\\Python\\web2py\\gluon\\globals.py", line 172, in <lambda>\n    self._caller = lambda f: f()\n  File "E:\\Programming\\Python\\web2py\\applications\\vote_up\\controllers/default.py", line 12, in new_post\n    self.post = db.posts[post_id]\nNameError: global name \'self\' is not defined\n'
p4124
s.