(dp1
S'output'
p2
S"<type 'exceptions.KeyError'> 'select'"
p3
sS'layer'
p4
S'E:\\Programming\\Python\\web2py\\applications\\vote_up\\controllers/default.py'
p5
sS'code'
p6
S'def index():\n    \'\'\'Display a post, its comments, its responses and allow for vote-up\'\'\'\n    posts=db.posts.select()\n    return response.render(\'default/index.html\', locals())\n    \ndef new_post():\n    \'\'\'Accept a new post\'\'\'\n    post_id = db.posts.insert(\n        title = request.vars["title"],\n        message = request.vars["message"]\n    )\n    self.post = db.posts[post_id]\n    return index()\nresponse._vars=response._caller(index)\n'
p7
sS'snapshot'
p8
(dp9
sS'traceback'
p10
S'Traceback (most recent call last):\n  File "E:\\Programming\\Python\\web2py\\gluon\\restricted.py", line 204, in restricted\n    exec ccode in environment\n  File "E:\\Programming\\Python\\web2py\\applications\\vote_up\\controllers/default.py", line 14, in <module>\n  File "E:\\Programming\\Python\\web2py\\gluon\\globals.py", line 172, in <lambda>\n    self._caller = lambda f: f()\n  File "E:\\Programming\\Python\\web2py\\applications\\vote_up\\controllers/default.py", line 3, in index\n    posts=db.posts.select()\n  File "E:\\Programming\\Python\\web2py\\gluon\\dal.py", line 5542, in __getattr__\n    return self[key]\n  File "E:\\Programming\\Python\\web2py\\gluon\\dal.py", line 5482, in __getitem__\n    return dict.__getitem__(self, str(key))\nKeyError: \'select\'\n'
p11
s.