(dp1
S'output'
p2
S"<type 'exceptions.SyntaxError'> invalid syntax (controllers/default.py, line 3)"
p3
sS'layer'
p4
S'E:\\Programming\\Python\\web2py\\applications\\vote_up\\controllers/default.py'
p5
sS'code'
p6
S'def index():\n    \'\'\'Display a post, its comments, its responses and allow for vote-up\'\'\'\n    posts=db(db.posts).select(orderby=(!db.posts.votes))\n    return response.render(\'default/index.html\', locals())\n    \ndef new_post():\n    \'\'\'Accept a new post\'\'\'\n    post_id = db.posts.insert(\n        title = request.vars["title"],\n        message = request.vars["message"]\n    )\n    #post = db.posts[post_id]\n    return index()\n    \ndef vote():\n    \'\'\'Add a vote\'\'\'\n    post = db(db.posts.id == request.vars["post"]).select().first()\n    if int(request.vars["up"])==1:  inc=1\n    else:   inc=-1\n    post.update_record(votes=post.votes+inc)\n    return index()\nresponse._vars=response._caller(index)\n'
p7
sS'snapshot'
p8
(dp9
S'exception'
p10
(dp11
S'__getslice__'
p12
S"<method-wrapper '__getslice__' of exceptions.SyntaxError object>"
p13
sS'text'
p14
S"'    posts=db(db.posts).select(orderby=(!db.posts.votes))\\n'"
p15
sS'__str__'
p16
S"<method-wrapper '__str__' of exceptions.SyntaxError object>"
p17
sS'__reduce__'
p18
S'<built-in method __reduce__ of exceptions.SyntaxError object>'
p19
sS'__dict__'
p20
S'{}'
p21
sS'__sizeof__'
p22
S'<built-in method __sizeof__ of exceptions.SyntaxError object>'
p23
sS'__init__'
p24
S"<method-wrapper '__init__' of exceptions.SyntaxError object>"
p25
sS'__setattr__'
p26
S"<method-wrapper '__setattr__' of exceptions.SyntaxError object>"
p27
sS'__reduce_ex__'
p28
S'<built-in method __reduce_ex__ of exceptions.SyntaxError object>'
p29
sS'__new__'
p30
S'<built-in method __new__ of type object>'
p31
sS'__format__'
p32
S'<built-in method __format__ of exceptions.SyntaxError object>'
p33
sS'__class__'
p34
S"<type 'exceptions.SyntaxError'>"
p35
sS'filename'
p36
S"r'E:\\Programming\\Python\\web2py\\applications\\vote_up\\controllers/default.py'"
p37
sS'lineno'
p38
S'3'
sS'msg'
p39
S"'invalid syntax'"
p40
sS'__doc__'
p41
S"'Invalid syntax.'"
p42
sS'__getitem__'
p43
S"<method-wrapper '__getitem__' of exceptions.SyntaxError object>"
p44
sS'__setstate__'
p45
S'<built-in method __setstate__ of exceptions.SyntaxError object>'
p46
sS'__getattribute__'
p47
S"<method-wrapper '__getattribute__' of exceptions.SyntaxError object>"
p48
sS'print_file_and_line'
p49
S'None'
p50
sS'args'
p51
S"('invalid syntax', (r'E:\\Programming\\Python\\web2py\\applications\\vote_up\\controllers/default.py', 3, 40, '    posts=db(db.posts).select(orderby=(!db.posts.votes))\\n'))"
p52
sS'__subclasshook__'
p53
S'<built-in method __subclasshook__ of type object>'
p54
sS'offset'
p55
S'40'
p56
sS'__unicode__'
p57
S'<built-in method __unicode__ of exceptions.SyntaxError object>'
p58
sS'__delattr__'
p59
S"<method-wrapper '__delattr__' of exceptions.SyntaxError object>"
p60
sS'__repr__'
p61
S"<method-wrapper '__repr__' of exceptions.SyntaxError object>"
p62
sS'__hash__'
p63
S"<method-wrapper '__hash__' of exceptions.SyntaxError object>"
p64
ssS'evalue'
p65
S'invalid syntax (controllers/default.py, line 3)'
p66
sS'request'
p67
ccopy_reg
_reconstructor
p68
(cgluon.html
BEAUTIFY
p69
c__builtin__
object
p70
NtRp71
(dp72
S'attributes'
p73
(dp74
sS'components'
p75
(lp76
g68
(cgluon.html
TABLE
p77
g70
NtRp78
(dp79
g73
(dp80
S'level'
p81
I5
ssS'parent'
p82
Nsg75
(lp83
g68
(cgluon.html
TR
p84
g70
NtRp85
(dp86
g73
(dp87
sg82
g78
sg75
(lp88
g68
(cgluon.html
TD
p89
g70
NtRp90
(dp91
g73
(dp92
S'_style'
p93
S'font-weight:bold;vertical-align:top'
p94
ssg82
g85
sg75
(lp95
S'ajax'
p96
asbag68
(g89
g70
NtRp97
(dp98
g73
(dp99
S'_valign'
p100
S'top'
p101
ssg82
g85
sg75
(lp102
S':'
asbag68
(g89
g70
NtRp103
(dp104
g73
(dp105
sg82
g85
sg75
(lp106
g68
(g69
g70
NtRp107
(dp108
g73
(dp109
g81
I5
ssg82
g103
sg75
(lp110
S'False'
p111
asbasbasbag68
(g84
g70
NtRp112
(dp113
g73
(dp114
sg82
g78
sg75
(lp115
g68
(g89
g70
NtRp116
(dp117
g73
(dp118
g93
g94
ssg82
g112
sg75
(lp119
S'application'
p120
asbag68
(g89
g70
NtRp121
(dp122
g73
(dp123
g100
g101
ssg82
g112
sg75
(lp124
S':'
asbag68
(g89
g70
NtRp125
(dp126
g73
(dp127
sg82
g112
sg75
(lp128
g68
(g69
g70
NtRp129
(dp130
g73
(dp131
g81
I5
ssg82
g125
sg75
(lp132
S'vote_up'
p133
asbasbasbag68
(g84
g70
NtRp134
(dp135
g73
(dp136
sg82
g78
sg75
(lp137
g68
(g89
g70
NtRp138
(dp139
g73
(dp140
g93
g94
ssg82
g134
sg75
(lp141
g51
asbag68
(g89
g70
NtRp142
(dp143
g73
(dp144
g100
g101
ssg82
g134
sg75
(lp145
S':'
asbag68
(g89
g70
NtRp146
(dp147
g73
(dp148
sg82
g134
sg75
(lp149
g68
(g69
g70
NtRp150
(dp151
g73
(dp152
g81
I5
ssg82
g146
sg75
(lp153
g68
(g77
g70
NtRp154
(dp155
g73
(dp156
g81
I4
ssg82
Nsg75
(lp157
sbasbasbasbag68
(g84
g70
NtRp158
(dp159
g73
(dp160
sg82
g78
sg75
(lp161
g68
(g89
g70
NtRp162
(dp163
g73
(dp164
g93
g94
ssg82
g158
sg75
(lp165
S'body'
p166
asbag68
(g89
g70
NtRp167
(dp168
g73
(dp169
g100
g101
ssg82
g158
sg75
(lp170
S':'
asbag68
(g89
g70
NtRp171
(dp172
g73
(dp173
sg82
g158
sg75
(lp174
g68
(g69
g70
NtRp175
(dp176
g73
(dp177
g81
I5
ssg82
g171
sg75
(lp178
S'<cStringIO.StringO object at 0x02B15860>'
p179
asbasbasbag68
(g84
g70
NtRp180
(dp181
g73
(dp182
sg82
g78
sg75
(lp183
g68
(g89
g70
NtRp184
(dp185
g73
(dp186
g93
g94
ssg82
g180
sg75
(lp187
S'client'
p188
asbag68
(g89
g70
NtRp189
(dp190
g73
(dp191
g100
g101
ssg82
g180
sg75
(lp192
S':'
asbag68
(g89
g70
NtRp193
(dp194
g73
(dp195
sg82
g180
sg75
(lp196
g68
(g69
g70
NtRp197
(dp198
g73
(dp199
g81
I5
ssg82
g193
sg75
(lp200
S'127.0.0.1'
p201
asbasbasbag68
(g84
g70
NtRp202
(dp203
g73
(dp204
sg82
g78
sg75
(lp205
g68
(g89
g70
NtRp206
(dp207
g73
(dp208
g93
g94
ssg82
g202
sg75
(lp209
S'controller'
p210
asbag68
(g89
g70
NtRp211
(dp212
g73
(dp213
g100
g101
ssg82
g202
sg75
(lp214
S':'
asbag68
(g89
g70
NtRp215
(dp216
g73
(dp217
sg82
g202
sg75
(lp218
g68
(g69
g70
NtRp219
(dp220
g73
(dp221
g81
I5
ssg82
g215
sg75
(lp222
S'default'
p223
asbasbasbag68
(g84
g70
NtRp224
(dp225
g73
(dp226
sg82
g78
sg75
(lp227
g68
(g89
g70
NtRp228
(dp229
g73
(dp230
g93
g94
ssg82
g224
sg75
(lp231
S'cookies'
p232
asbag68
(g89
g70
NtRp233
(dp234
g73
(dp235
g100
g101
ssg82
g224
sg75
(lp236
S':'
asbag68
(g89
g70
NtRp237
(dp238
g73
(dp239
sg82
g224
sg75
(lp240
g68
(g69
g70
NtRp241
(dp242
g73
(dp243
g81
I5
ssg82
g237
sg75
(lp244
g68
(g77
g70
NtRp245
(dp246
g73
(dp247
g81
I4
ssg82
Nsg75
(lp248
g68
(g84
g70
NtRp249
(dp250
g73
(dp251
sg82
g245
sg75
(lp252
g68
(g89
g70
NtRp253
(dp254
g73
(dp255
g93
g94
ssg82
g249
sg75
(lp256
S'session_id_welcome'
p257
asbag68
(g89
g70
NtRp258
(dp259
g73
(dp260
g100
g101
ssg82
g249
sg75
(lp261
S':'
asbag68
(g89
g70
NtRp262
(dp263
g73
(dp264
sg82
g249
sg75
(lp265
g68
(g69
g70
NtRp266
(dp267
g73
(dp268
g81
I4
ssg82
g262
sg75
(lp269
g68
(g77
g70
NtRp270
(dp271
g73
(dp272
g81
I3
ssg82
Nsg75
(lp273
g68
(g84
g70
NtRp274
(dp275
g73
(dp276
sg82
g270
sg75
(lp277
g68
(g89
g70
NtRp278
(dp279
g73
(dp280
g93
g94
ssg82
g274
sg75
(lp281
S'comment'
p282
asbag68
(g89
g70
NtRp283
(dp284
g73
(dp285
g100
g101
ssg82
g274
sg75
(lp286
S':'
asbag68
(g89
g70
NtRp287
(dp288
g73
(dp289
sg82
g274
sg75
(lp290
g68
(g69
g70
NtRp291
(dp292
g73
(dp293
g81
I3
ssg82
g287
sg75
(lp294
S''
asbasbasbag68
(g84
g70
NtRp295
(dp296
g73
(dp297
sg82
g270
sg75
(lp298
g68
(g89
g70
NtRp299
(dp300
g73
(dp301
g93
g94
ssg82
g295
sg75
(lp302
S'domain'
p303
asbag68
(g89
g70
NtRp304
(dp305
g73
(dp306
g100
g101
ssg82
g295
sg75
(lp307
S':'
asbag68
(g89
g70
NtRp308
(dp309
g73
(dp310
sg82
g295
sg75
(lp311
g68
(g69
g70
NtRp312
(dp313
g73
(dp314
g81
I3
ssg82
g308
sg75
(lp315
S''
asbasbasbag68
(g84
g70
NtRp316
(dp317
g73
(dp318
sg82
g270
sg75
(lp319
g68
(g89
g70
NtRp320
(dp321
g73
(dp322
g93
g94
ssg82
g316
sg75
(lp323
S'expires'
p324
asbag68
(g89
g70
NtRp325
(dp326
g73
(dp327
g100
g101
ssg82
g316
sg75
(lp328
S':'
asbag68
(g89
g70
NtRp329
(dp330
g73
(dp331
sg82
g316
sg75
(lp332
g68
(g69
g70
NtRp333
(dp334
g73
(dp335
g81
I3
ssg82
g329
sg75
(lp336
S''
asbasbasbag68
(g84
g70
NtRp337
(dp338
g73
(dp339
sg82
g270
sg75
(lp340
g68
(g89
g70
NtRp341
(dp342
g73
(dp343
g93
g94
ssg82
g337
sg75
(lp344
S'httponly'
p345
asbag68
(g89
g70
NtRp346
(dp347
g73
(dp348
g100
g101
ssg82
g337
sg75
(lp349
S':'
asbag68
(g89
g70
NtRp350
(dp351
g73
(dp352
sg82
g337
sg75
(lp353
g68
(g69
g70
NtRp354
(dp355
g73
(dp356
g81
I3
ssg82
g350
sg75
(lp357
S''
asbasbasbag68
(g84
g70
NtRp358
(dp359
g73
(dp360
sg82
g270
sg75
(lp361
g68
(g89
g70
NtRp362
(dp363
g73
(dp364
g93
g94
ssg82
g358
sg75
(lp365
S'max-age'
p366
asbag68
(g89
g70
NtRp367
(dp368
g73
(dp369
g100
g101
ssg82
g358
sg75
(lp370
S':'
asbag68
(g89
g70
NtRp371
(dp372
g73
(dp373
sg82
g358
sg75
(lp374
g68
(g69
g70
NtRp375
(dp376
g73
(dp377
g81
I3
ssg82
g371
sg75
(lp378
S''
asbasbasbag68
(g84
g70
NtRp379
(dp380
g73
(dp381
sg82
g270
sg75
(lp382
g68
(g89
g70
NtRp383
(dp384
g73
(dp385
g93
g94
ssg82
g379
sg75
(lp386
S'path'
p387
asbag68
(g89
g70
NtRp388
(dp389
g73
(dp390
g100
g101
ssg82
g379
sg75
(lp391
S':'
asbag68
(g89
g70
NtRp392
(dp393
g73
(dp394
sg82
g379
sg75
(lp395
g68
(g69
g70
NtRp396
(dp397
g73
(dp398
g81
I3
ssg82
g392
sg75
(lp399
S''
asbasbasbag68
(g84
g70
NtRp400
(dp401
g73
(dp402
sg82
g270
sg75
(lp403
g68
(g89
g70
NtRp404
(dp405
g73
(dp406
g93
g94
ssg82
g400
sg75
(lp407
S'secure'
p408
asbag68
(g89
g70
NtRp409
(dp410
g73
(dp411
g100
g101
ssg82
g400
sg75
(lp412
S':'
asbag68
(g89
g70
NtRp413
(dp414
g73
(dp415
sg82
g400
sg75
(lp416
g68
(g69
g70
NtRp417
(dp418
g73
(dp419
g81
I3
ssg82
g413
sg75
(lp420
S''
asbasbasbag68
(g84
g70
NtRp421
(dp422
g73
(dp423
sg82
g270
sg75
(lp424
g68
(g89
g70
NtRp425
(dp426
g73
(dp427
g93
g94
ssg82
g421
sg75
(lp428
S'version'
p429
asbag68
(g89
g70
NtRp430
(dp431
g73
(dp432
g100
g101
ssg82
g421
sg75
(lp433
S':'
asbag68
(g89
g70
NtRp434
(dp435
g73
(dp436
sg82
g421
sg75
(lp437
g68
(g69
g70
NtRp438
(dp439
g73
(dp440
g81
I3
ssg82
g434
sg75
(lp441
S''
asbasbasbasbasbasbasbasbasbasbasbag68
(g84
g70
NtRp442
(dp443
g73
(dp444
sg82
g78
sg75
(lp445
g68
(g89
g70
NtRp446
(dp447
g73
(dp448
g93
g94
ssg82
g442
sg75
(lp449
S'env'
p450
asbag68
(g89
g70
NtRp451
(dp452
g73
(dp453
g100
g101
ssg82
g442
sg75
(lp454
S':'
asbag68
(g89
g70
NtRp455
(dp456
g73
(dp457
sg82
g442
sg75
(lp458
g68
(g69
g70
NtRp459
(dp460
g73
(dp461
g81
I5
ssg82
g455
sg75
(lp462
g68
(g77
g70
NtRp463
(dp464
g73
(dp465
g81
I4
ssg82
Nsg75
(lp466
g68
(g84
g70
NtRp467
(dp468
g73
(dp469
sg82
g463
sg75
(lp470
g68
(g89
g70
NtRp471
(dp472
g73
(dp473
g93
g94
ssg82
g467
sg75
(lp474
S'app_folders'
p475
asbag68
(g89
g70
NtRp476
(dp477
g73
(dp478
g100
g101
ssg82
g467
sg75
(lp479
S':'
asbag68
(g89
g70
NtRp480
(dp481
g73
(dp482
sg82
g467
sg75
(lp483
g68
(g69
g70
NtRp484
(dp485
g73
(dp486
g81
I4
ssg82
g480
sg75
(lp487
S"set(['E:\\\\Programming\\\\Python\\\\web2py\\\\applications\\\\vote_up\\\\', 'E:\\\\Programming\\\\Python\\\\web2py\\\\applications\\\\welcome\\\\'])"
p488
asbasbasbag68
(g84
g70
NtRp489
(dp490
g73
(dp491
sg82
g463
sg75
(lp492
g68
(g89
g70
NtRp493
(dp494
g73
(dp495
g93
g94
ssg82
g489
sg75
(lp496
S'applications_parent'
p497
asbag68
(g89
g70
NtRp498
(dp499
g73
(dp500
g100
g101
ssg82
g489
sg75
(lp501
S':'
asbag68
(g89
g70
NtRp502
(dp503
g73
(dp504
sg82
g489
sg75
(lp505
g68
(g69
g70
NtRp506
(dp507
g73
(dp508
g81
I4
ssg82
g502
sg75
(lp509
S'E:\\Programming\\Python\\web2py'
p510
asbasbasbag68
(g84
g70
NtRp511
(dp512
g73
(dp513
sg82
g463
sg75
(lp514
g68
(g89
g70
NtRp515
(dp516
g73
(dp517
g93
g94
ssg82
g511
sg75
(lp518
S'cmd_args'
p519
asbag68
(g89
g70
NtRp520
(dp521
g73
(dp522
g100
g101
ssg82
g511
sg75
(lp523
S':'
asbag68
(g89
g70
NtRp524
(dp525
g73
(dp526
sg82
g511
sg75
(lp527
g68
(g69
g70
NtRp528
(dp529
g73
(dp530
g81
I4
ssg82
g524
sg75
(lp531
g68
(g77
g70
NtRp532
(dp533
g73
(dp534
g81
I3
ssg82
Nsg75
(lp535
sbasbasbasbag68
(g84
g70
NtRp536
(dp537
g73
(dp538
sg82
g463
sg75
(lp539
g68
(g89
g70
NtRp540
(dp541
g73
(dp542
g93
g94
ssg82
g536
sg75
(lp543
S'cmd_options'
p544
asbag68
(g89
g70
NtRp545
(dp546
g73
(dp547
g100
g101
ssg82
g536
sg75
(lp548
S':'
asbag68
(g89
g70
NtRp549
(dp550
g73
(dp551
sg82
g536
sg75
(lp552
g68
(g69
g70
NtRp553
(dp554
g73
(dp555
g81
I4
ssg82
g549
sg75
(lp556
S"<Values at 0x2803710: {'verbose': False, 'ip': '127.0.0.1', 'shutdown_timeout': 5, 'taskbar': False, 'nocron': False, 'pid_filename': 'httpserver.pid', 'maxthreads': None, 'softcron': False, 'server_name': '1901200822091P', 'bpython': False, 'nogui': False, 'port': 8000, 'extcron': False, 'debuglevel': 30, 'test': None, 'folder': 'E:\\\\Programming\\\\Python\\\\web2py', 'config': '', 'import_models': False, 'winservice': '', 'shell': None, 'run': '', 'log_filename': 'httpserver.log', 'args': [''], 'socket_timeout': 1, 'ssl_ca_certificate': None, 'scheduler': None, 'profiler_filename': None, 'ssl_private_key': '', 'password': '<ask>', 'request_queue_size': 5, 'ssl_certificate': '', 'cronjob': False, 'numthreads': None, 'quiet': False, 'interfaces': None, 'minthreads': None, 'timeout': 10, 'plain': False, 'nobanner': False}>"
p557
asbasbasbag68
(g84
g70
NtRp558
(dp559
g73
(dp560
sg82
g463
sg75
(lp561
g68
(g89
g70
NtRp562
(dp563
g73
(dp564
g93
g94
ssg82
g558
sg75
(lp565
S'db_sessions'
p566
asbag68
(g89
g70
NtRp567
(dp568
g73
(dp569
g100
g101
ssg82
g558
sg75
(lp570
S':'
asbag68
(g89
g70
NtRp571
(dp572
g73
(dp573
sg82
g558
sg75
(lp574
g68
(g69
g70
NtRp575
(dp576
g73
(dp577
g81
I4
ssg82
g571
sg75
(lp578
S'set([])'
p579
asbasbasbag68
(g84
g70
NtRp580
(dp581
g73
(dp582
sg82
g463
sg75
(lp583
g68
(g89
g70
NtRp584
(dp585
g73
(dp586
g93
g94
ssg82
g580
sg75
(lp587
S'debugging'
p588
asbag68
(g89
g70
NtRp589
(dp590
g73
(dp591
g100
g101
ssg82
g580
sg75
(lp592
S':'
asbag68
(g89
g70
NtRp593
(dp594
g73
(dp595
sg82
g580
sg75
(lp596
g68
(g69
g70
NtRp597
(dp598
g73
(dp599
g81
I4
ssg82
g593
sg75
(lp600
g111
asbasbasbag68
(g84
g70
NtRp601
(dp602
g73
(dp603
sg82
g463
sg75
(lp604
g68
(g89
g70
NtRp605
(dp606
g73
(dp607
g93
g94
ssg82
g601
sg75
(lp608
S'gluon_parent'
p609
asbag68
(g89
g70
NtRp610
(dp611
g73
(dp612
g100
g101
ssg82
g601
sg75
(lp613
S':'
asbag68
(g89
g70
NtRp614
(dp615
g73
(dp616
sg82
g601
sg75
(lp617
g68
(g69
g70
NtRp618
(dp619
g73
(dp620
g81
I4
ssg82
g614
sg75
(lp621
S'E:\\Programming\\Python\\web2py'
p622
asbasbasbag68
(g84
g70
NtRp623
(dp624
g73
(dp625
sg82
g463
sg75
(lp626
g68
(g89
g70
NtRp627
(dp628
g73
(dp629
g93
g94
ssg82
g623
sg75
(lp630
S'http_accept'
p631
asbag68
(g89
g70
NtRp632
(dp633
g73
(dp634
g100
g101
ssg82
g623
sg75
(lp635
S':'
asbag68
(g89
g70
NtRp636
(dp637
g73
(dp638
sg82
g623
sg75
(lp639
g68
(g69
g70
NtRp640
(dp641
g73
(dp642
g81
I4
ssg82
g636
sg75
(lp643
S'text/html,application/xhtml+xml,application/xml;q=0.9,*/*;q=0.8'
p644
asbasbasbag68
(g84
g70
NtRp645
(dp646
g73
(dp647
sg82
g463
sg75
(lp648
g68
(g89
g70
NtRp649
(dp650
g73
(dp651
g93
g94
ssg82
g645
sg75
(lp652
S'http_accept_charset'
p653
asbag68
(g89
g70
NtRp654
(dp655
g73
(dp656
g100
g101
ssg82
g645
sg75
(lp657
S':'
asbag68
(g89
g70
NtRp658
(dp659
g73
(dp660
sg82
g645
sg75
(lp661
g68
(g69
g70
NtRp662
(dp663
g73
(dp664
g81
I4
ssg82
g658
sg75
(lp665
S'ISO-8859-1,utf-8;q=0.7,*;q=0.3'
p666
asbasbasbag68
(g84
g70
NtRp667
(dp668
g73
(dp669
sg82
g463
sg75
(lp670
g68
(g89
g70
NtRp671
(dp672
g73
(dp673
g93
g94
ssg82
g667
sg75
(lp674
S'http_accept_encoding'
p675
asbag68
(g89
g70
NtRp676
(dp677
g73
(dp678
g100
g101
ssg82
g667
sg75
(lp679
S':'
asbag68
(g89
g70
NtRp680
(dp681
g73
(dp682
sg82
g667
sg75
(lp683
g68
(g69
g70
NtRp684
(dp685
g73
(dp686
g81
I4
ssg82
g680
sg75
(lp687
S'gzip,deflate,sdch'
p688
asbasbasbag68
(g84
g70
NtRp689
(dp690
g73
(dp691
sg82
g463
sg75
(lp692
g68
(g89
g70
NtRp693
(dp694
g73
(dp695
g93
g94
ssg82
g689
sg75
(lp696
S'http_accept_language'
p697
asbag68
(g89
g70
NtRp698
(dp699
g73
(dp700
g100
g101
ssg82
g689
sg75
(lp701
S':'
asbag68
(g89
g70
NtRp702
(dp703
g73
(dp704
sg82
g689
sg75
(lp705
g68
(g69
g70
NtRp706
(dp707
g73
(dp708
g81
I4
ssg82
g702
sg75
(lp709
S'en-US,en;q=0.8'
p710
asbasbasbag68
(g84
g70
NtRp711
(dp712
g73
(dp713
sg82
g463
sg75
(lp714
g68
(g89
g70
NtRp715
(dp716
g73
(dp717
g93
g94
ssg82
g711
sg75
(lp718
S'http_connection'
p719
asbag68
(g89
g70
NtRp720
(dp721
g73
(dp722
g100
g101
ssg82
g711
sg75
(lp723
S':'
asbag68
(g89
g70
NtRp724
(dp725
g73
(dp726
sg82
g711
sg75
(lp727
g68
(g69
g70
NtRp728
(dp729
g73
(dp730
g81
I4
ssg82
g724
sg75
(lp731
S'keep-alive'
p732
asbasbasbag68
(g84
g70
NtRp733
(dp734
g73
(dp735
sg82
g463
sg75
(lp736
g68
(g89
g70
NtRp737
(dp738
g73
(dp739
g93
g94
ssg82
g733
sg75
(lp740
S'http_cookie'
p741
asbag68
(g89
g70
NtRp742
(dp743
g73
(dp744
g100
g101
ssg82
g733
sg75
(lp745
S':'
asbag68
(g89
g70
NtRp746
(dp747
g73
(dp748
sg82
g733
sg75
(lp749
g68
(g69
g70
NtRp750
(dp751
g73
(dp752
g81
I4
ssg82
g746
sg75
(lp753
S'session_id_welcome=127.0.0.1-80518e74-fd55-4e65-b22c-ba403561d3ca'
p754
asbasbasbag68
(g84
g70
NtRp755
(dp756
g73
(dp757
sg82
g463
sg75
(lp758
g68
(g89
g70
NtRp759
(dp760
g73
(dp761
g93
g94
ssg82
g755
sg75
(lp762
S'http_host'
p763
asbag68
(g89
g70
NtRp764
(dp765
g73
(dp766
g100
g101
ssg82
g755
sg75
(lp767
S':'
asbag68
(g89
g70
NtRp768
(dp769
g73
(dp770
sg82
g755
sg75
(lp771
g68
(g69
g70
NtRp772
(dp773
g73
(dp774
g81
I4
ssg82
g768
sg75
(lp775
S'127.0.0.1:8000'
p776
asbasbasbag68
(g84
g70
NtRp777
(dp778
g73
(dp779
sg82
g463
sg75
(lp780
g68
(g89
g70
NtRp781
(dp782
g73
(dp783
g93
g94
ssg82
g777
sg75
(lp784
S'http_user_agent'
p785
asbag68
(g89
g70
NtRp786
(dp787
g73
(dp788
g100
g101
ssg82
g777
sg75
(lp789
S':'
asbag68
(g89
g70
NtRp790
(dp791
g73
(dp792
sg82
g777
sg75
(lp793
g68
(g69
g70
NtRp794
(dp795
g73
(dp796
g81
I4
ssg82
g790
sg75
(lp797
S'Mozilla/5.0 (Windows NT 6.1) AppleWebKit/535.1 (KHTML, like Gecko) RockMelt/0.9.72.698 Chrome/14.0.835.202 Safari/535.1'
p798
asbasbasbag68
(g84
g70
NtRp799
(dp800
g73
(dp801
sg82
g463
sg75
(lp802
g68
(g89
g70
NtRp803
(dp804
g73
(dp805
g93
g94
ssg82
g799
sg75
(lp806
S'http_x_purpose'
p807
asbag68
(g89
g70
NtRp808
(dp809
g73
(dp810
g100
g101
ssg82
g799
sg75
(lp811
S':'
asbag68
(g89
g70
NtRp812
(dp813
g73
(dp814
sg82
g799
sg75
(lp815
g68
(g69
g70
NtRp816
(dp817
g73
(dp818
g81
I4
ssg82
g812
sg75
(lp819
S'instant'
p820
asbasbasbag68
(g84
g70
NtRp821
(dp822
g73
(dp823
sg82
g463
sg75
(lp824
g68
(g89
g70
NtRp825
(dp826
g73
(dp827
g93
g94
ssg82
g821
sg75
(lp828
S'is_jython'
p829
asbag68
(g89
g70
NtRp830
(dp831
g73
(dp832
g100
g101
ssg82
g821
sg75
(lp833
S':'
asbag68
(g89
g70
NtRp834
(dp835
g73
(dp836
sg82
g821
sg75
(lp837
g68
(g69
g70
NtRp838
(dp839
g73
(dp840
g81
I4
ssg82
g834
sg75
(lp841
g111
asbasbasbag68
(g84
g70
NtRp842
(dp843
g73
(dp844
sg82
g463
sg75
(lp845
g68
(g89
g70
NtRp846
(dp847
g73
(dp848
g93
g94
ssg82
g842
sg75
(lp849
S'is_pypy'
p850
asbag68
(g89
g70
NtRp851
(dp852
g73
(dp853
g100
g101
ssg82
g842
sg75
(lp854
S':'
asbag68
(g89
g70
NtRp855
(dp856
g73
(dp857
sg82
g842
sg75
(lp858
g68
(g69
g70
NtRp859
(dp860
g73
(dp861
g81
I4
ssg82
g855
sg75
(lp862
g111
asbasbasbag68
(g84
g70
NtRp863
(dp864
g73
(dp865
sg82
g463
sg75
(lp866
g68
(g89
g70
NtRp867
(dp868
g73
(dp869
g93
g94
ssg82
g863
sg75
(lp870
S'path_info'
p871
asbag68
(g89
g70
NtRp872
(dp873
g73
(dp874
g100
g101
ssg82
g863
sg75
(lp875
S':'
asbag68
(g89
g70
NtRp876
(dp877
g73
(dp878
sg82
g863
sg75
(lp879
g68
(g69
g70
NtRp880
(dp881
g73
(dp882
g81
I4
ssg82
g876
sg75
(lp883
S'/vote_up/'
p884
asbasbasbag68
(g84
g70
NtRp885
(dp886
g73
(dp887
sg82
g463
sg75
(lp888
g68
(g89
g70
NtRp889
(dp890
g73
(dp891
g93
g94
ssg82
g885
sg75
(lp892
S'query_string'
p893
asbag68
(g89
g70
NtRp894
(dp895
g73
(dp896
g100
g101
ssg82
g885
sg75
(lp897
S':'
asbag68
(g89
g70
NtRp898
(dp899
g73
(dp900
sg82
g885
sg75
(lp901
g68
(g69
g70
NtRp902
(dp903
g73
(dp904
g81
I4
ssg82
g898
sg75
(lp905
S''
asbasbasbag68
(g84
g70
NtRp906
(dp907
g73
(dp908
sg82
g463
sg75
(lp909
g68
(g89
g70
NtRp910
(dp911
g73
(dp912
g93
g94
ssg82
g906
sg75
(lp913
S'remote_addr'
p914
asbag68
(g89
g70
NtRp915
(dp916
g73
(dp917
g100
g101
ssg82
g906
sg75
(lp918
S':'
asbag68
(g89
g70
NtRp919
(dp920
g73
(dp921
sg82
g906
sg75
(lp922
g68
(g69
g70
NtRp923
(dp924
g73
(dp925
g81
I4
ssg82
g919
sg75
(lp926
g201
asbasbasbag68
(g84
g70
NtRp927
(dp928
g73
(dp929
sg82
g463
sg75
(lp930
g68
(g89
g70
NtRp931
(dp932
g73
(dp933
g93
g94
ssg82
g927
sg75
(lp934
S'remote_port'
p935
asbag68
(g89
g70
NtRp936
(dp937
g73
(dp938
g100
g101
ssg82
g927
sg75
(lp939
S':'
asbag68
(g89
g70
NtRp940
(dp941
g73
(dp942
sg82
g927
sg75
(lp943
g68
(g69
g70
NtRp944
(dp945
g73
(dp946
g81
I4
ssg82
g940
sg75
(lp947
S'50086'
p948
asbasbasbag68
(g84
g70
NtRp949
(dp950
g73
(dp951
sg82
g463
sg75
(lp952
g68
(g89
g70
NtRp953
(dp954
g73
(dp955
g93
g94
ssg82
g949
sg75
(lp956
S'request_method'
p957
asbag68
(g89
g70
NtRp958
(dp959
g73
(dp960
g100
g101
ssg82
g949
sg75
(lp961
S':'
asbag68
(g89
g70
NtRp962
(dp963
g73
(dp964
sg82
g949
sg75
(lp965
g68
(g69
g70
NtRp966
(dp967
g73
(dp968
g81
I4
ssg82
g962
sg75
(lp969
S'GET'
p970
asbasbasbag68
(g84
g70
NtRp971
(dp972
g73
(dp973
sg82
g463
sg75
(lp974
g68
(g89
g70
NtRp975
(dp976
g73
(dp977
g93
g94
ssg82
g971
sg75
(lp978
S'script_name'
p979
asbag68
(g89
g70
NtRp980
(dp981
g73
(dp982
g100
g101
ssg82
g971
sg75
(lp983
S':'
asbag68
(g89
g70
NtRp984
(dp985
g73
(dp986
sg82
g971
sg75
(lp987
g68
(g69
g70
NtRp988
(dp989
g73
(dp990
g81
I4
ssg82
g984
sg75
(lp991
S''
asbasbasbag68
(g84
g70
NtRp992
(dp993
g73
(dp994
sg82
g463
sg75
(lp995
g68
(g89
g70
NtRp996
(dp997
g73
(dp998
g93
g94
ssg82
g992
sg75
(lp999
S'server_name'
p1000
asbag68
(g89
g70
NtRp1001
(dp1002
g73
(dp1003
g100
g101
ssg82
g992
sg75
(lp1004
S':'
asbag68
(g89
g70
NtRp1005
(dp1006
g73
(dp1007
sg82
g992
sg75
(lp1008
g68
(g69
g70
NtRp1009
(dp1010
g73
(dp1011
g81
I4
ssg82
g1005
sg75
(lp1012
S'1901200822091P'
p1013
asbasbasbag68
(g84
g70
NtRp1014
(dp1015
g73
(dp1016
sg82
g463
sg75
(lp1017
g68
(g89
g70
NtRp1018
(dp1019
g73
(dp1020
g93
g94
ssg82
g1014
sg75
(lp1021
S'server_port'
p1022
asbag68
(g89
g70
NtRp1023
(dp1024
g73
(dp1025
g100
g101
ssg82
g1014
sg75
(lp1026
S':'
asbag68
(g89
g70
NtRp1027
(dp1028
g73
(dp1029
sg82
g1014
sg75
(lp1030
g68
(g69
g70
NtRp1031
(dp1032
g73
(dp1033
g81
I4
ssg82
g1027
sg75
(lp1034
S'8000'
p1035
asbasbasbag68
(g84
g70
NtRp1036
(dp1037
g73
(dp1038
sg82
g463
sg75
(lp1039
g68
(g89
g70
NtRp1040
(dp1041
g73
(dp1042
g93
g94
ssg82
g1036
sg75
(lp1043
S'server_protocol'
p1044
asbag68
(g89
g70
NtRp1045
(dp1046
g73
(dp1047
g100
g101
ssg82
g1036
sg75
(lp1048
S':'
asbag68
(g89
g70
NtRp1049
(dp1050
g73
(dp1051
sg82
g1036
sg75
(lp1052
g68
(g69
g70
NtRp1053
(dp1054
g73
(dp1055
g81
I4
ssg82
g1049
sg75
(lp1056
S'HTTP/1.1'
p1057
asbasbasbag68
(g84
g70
NtRp1058
(dp1059
g73
(dp1060
sg82
g463
sg75
(lp1061
g68
(g89
g70
NtRp1062
(dp1063
g73
(dp1064
g93
g94
ssg82
g1058
sg75
(lp1065
S'server_software'
p1066
asbag68
(g89
g70
NtRp1067
(dp1068
g73
(dp1069
g100
g101
ssg82
g1058
sg75
(lp1070
S':'
asbag68
(g89
g70
NtRp1071
(dp1072
g73
(dp1073
sg82
g1058
sg75
(lp1074
g68
(g69
g70
NtRp1075
(dp1076
g73
(dp1077
g81
I4
ssg82
g1071
sg75
(lp1078
S'Rocket 1.2.4'
p1079
asbasbasbag68
(g84
g70
NtRp1080
(dp1081
g73
(dp1082
sg82
g463
sg75
(lp1083
g68
(g89
g70
NtRp1084
(dp1085
g73
(dp1086
g93
g94
ssg82
g1080
sg75
(lp1087
S'web2py_crontype'
p1088
asbag68
(g89
g70
NtRp1089
(dp1090
g73
(dp1091
g100
g101
ssg82
g1080
sg75
(lp1092
S':'
asbag68
(g89
g70
NtRp1093
(dp1094
g73
(dp1095
sg82
g1080
sg75
(lp1096
g68
(g69
g70
NtRp1097
(dp1098
g73
(dp1099
g81
I4
ssg82
g1093
sg75
(lp1100
S'hard'
p1101
asbasbasbag68
(g84
g70
NtRp1102
(dp1103
g73
(dp1104
sg82
g463
sg75
(lp1105
g68
(g89
g70
NtRp1106
(dp1107
g73
(dp1108
g93
g94
ssg82
g1102
sg75
(lp1109
S'web2py_path'
p1110
asbag68
(g89
g70
NtRp1111
(dp1112
g73
(dp1113
g100
g101
ssg82
g1102
sg75
(lp1114
S':'
asbag68
(g89
g70
NtRp1115
(dp1116
g73
(dp1117
sg82
g1102
sg75
(lp1118
g68
(g69
g70
NtRp1119
(dp1120
g73
(dp1121
g81
I4
ssg82
g1115
sg75
(lp1122
g510
asbasbasbag68
(g84
g70
NtRp1123
(dp1124
g73
(dp1125
sg82
g463
sg75
(lp1126
g68
(g89
g70
NtRp1127
(dp1128
g73
(dp1129
g93
g94
ssg82
g1123
sg75
(lp1130
S'web2py_version'
p1131
asbag68
(g89
g70
NtRp1132
(dp1133
g73
(dp1134
g100
g101
ssg82
g1123
sg75
(lp1135
S':'
asbag68
(g89
g70
NtRp1136
(dp1137
g73
(dp1138
sg82
g1123
sg75
(lp1139
g68
(g69
g70
NtRp1140
(dp1141
g73
(dp1142
g81
I4
ssg82
g1136
sg75
(lp1143
g68
(g77
g70
NtRp1144
(dp1145
g73
(dp1146
g81
I3
ssg82
Nsg75
(lp1147
g68
(g84
g70
NtRp1148
(dp1149
g73
(dp1150
sg82
g1144
sg75
(lp1151
g68
(g89
g70
NtRp1152
(dp1153
g73
(dp1154
sg82
g1148
sg75
(lp1155
g68
(g69
g70
NtRp1156
(dp1157
g73
(dp1158
g81
I3
ssg82
g1152
sg75
(lp1159
S'1'
asbasbasbag68
(g84
g70
NtRp1160
(dp1161
g73
(dp1162
sg82
g1144
sg75
(lp1163
g68
(g89
g70
NtRp1164
(dp1165
g73
(dp1166
sg82
g1160
sg75
(lp1167
g68
(g69
g70
NtRp1168
(dp1169
g73
(dp1170
g81
I3
ssg82
g1164
sg75
(lp1171
S'99'
p1172
asbasbasbag68
(g84
g70
NtRp1173
(dp1174
g73
(dp1175
sg82
g1144
sg75
(lp1176
g68
(g89
g70
NtRp1177
(dp1178
g73
(dp1179
sg82
g1173
sg75
(lp1180
g68
(g69
g70
NtRp1181
(dp1182
g73
(dp1183
g81
I3
ssg82
g1177
sg75
(lp1184
S'4'
asbasbasbag68
(g84
g70
NtRp1185
(dp1186
g73
(dp1187
sg82
g1144
sg75
(lp1188
g68
(g89
g70
NtRp1189
(dp1190
g73
(dp1191
sg82
g1185
sg75
(lp1192
g68
(g69
g70
NtRp1193
(dp1194
g73
(dp1195
g81
I3
ssg82
g1189
sg75
(lp1196
S'datetime.datetime(2011, 12, 14, 14, 46, 14)'
p1197
asbasbasbag68
(g84
g70
NtRp1198
(dp1199
g73
(dp1200
sg82
g1144
sg75
(lp1201
g68
(g89
g70
NtRp1202
(dp1203
g73
(dp1204
sg82
g1198
sg75
(lp1205
g68
(g69
g70
NtRp1206
(dp1207
g73
(dp1208
g81
I3
ssg82
g1202
sg75
(lp1209
S'stable'
p1210
asbasbasbasbasbasbasbag68
(g84
g70
NtRp1211
(dp1212
g73
(dp1213
sg82
g463
sg75
(lp1214
g68
(g89
g70
NtRp1215
(dp1216
g73
(dp1217
g93
g94
ssg82
g1211
sg75
(lp1218
S'wsgi_errors'
p1219
asbag68
(g89
g70
NtRp1220
(dp1221
g73
(dp1222
g100
g101
ssg82
g1211
sg75
(lp1223
S':'
asbag68
(g89
g70
NtRp1224
(dp1225
g73
(dp1226
sg82
g1211
sg75
(lp1227
g68
(g69
g70
NtRp1228
(dp1229
g73
(dp1230
g81
I4
ssg82
g1224
sg75
(lp1231
S"<open file '<stderr>', mode 'w' at 0x013350D0>"
p1232
asbasbasbag68
(g84
g70
NtRp1233
(dp1234
g73
(dp1235
sg82
g463
sg75
(lp1236
g68
(g89
g70
NtRp1237
(dp1238
g73
(dp1239
g93
g94
ssg82
g1233
sg75
(lp1240
S'wsgi_file_wrapper'
p1241
asbag68
(g89
g70
NtRp1242
(dp1243
g73
(dp1244
g100
g101
ssg82
g1233
sg75
(lp1245
S':'
asbag68
(g89
g70
NtRp1246
(dp1247
g73
(dp1248
sg82
g1233
sg75
(lp1249
g68
(g69
g70
NtRp1250
(dp1251
g73
(dp1252
g81
I4
ssg82
g1246
sg75
(lp1253
S'<class wsgiref.util.FileWrapper at 0x02744880>'
p1254
asbasbasbag68
(g84
g70
NtRp1255
(dp1256
g73
(dp1257
sg82
g463
sg75
(lp1258
g68
(g89
g70
NtRp1259
(dp1260
g73
(dp1261
g93
g94
ssg82
g1255
sg75
(lp1262
S'wsgi_input'
p1263
asbag68
(g89
g70
NtRp1264
(dp1265
g73
(dp1266
g100
g101
ssg82
g1255
sg75
(lp1267
S':'
asbag68
(g89
g70
NtRp1268
(dp1269
g73
(dp1270
sg82
g1255
sg75
(lp1271
g68
(g69
g70
NtRp1272
(dp1273
g73
(dp1274
g81
I4
ssg82
g1268
sg75
(lp1275
S'<socket._fileobject object at 0x02AF9670>'
p1276
asbasbasbag68
(g84
g70
NtRp1277
(dp1278
g73
(dp1279
sg82
g463
sg75
(lp1280
g68
(g89
g70
NtRp1281
(dp1282
g73
(dp1283
g93
g94
ssg82
g1277
sg75
(lp1284
S'wsgi_multiprocess'
p1285
asbag68
(g89
g70
NtRp1286
(dp1287
g73
(dp1288
g100
g101
ssg82
g1277
sg75
(lp1289
S':'
asbag68
(g89
g70
NtRp1290
(dp1291
g73
(dp1292
sg82
g1277
sg75
(lp1293
g68
(g69
g70
NtRp1294
(dp1295
g73
(dp1296
g81
I4
ssg82
g1290
sg75
(lp1297
g111
asbasbasbag68
(g84
g70
NtRp1298
(dp1299
g73
(dp1300
sg82
g463
sg75
(lp1301
g68
(g89
g70
NtRp1302
(dp1303
g73
(dp1304
g93
g94
ssg82
g1298
sg75
(lp1305
S'wsgi_multithread'
p1306
asbag68
(g89
g70
NtRp1307
(dp1308
g73
(dp1309
g100
g101
ssg82
g1298
sg75
(lp1310
S':'
asbag68
(g89
g70
NtRp1311
(dp1312
g73
(dp1313
sg82
g1298
sg75
(lp1314
g68
(g69
g70
NtRp1315
(dp1316
g73
(dp1317
g81
I4
ssg82
g1311
sg75
(lp1318
S'True'
p1319
asbasbasbag68
(g84
g70
NtRp1320
(dp1321
g73
(dp1322
sg82
g463
sg75
(lp1323
g68
(g89
g70
NtRp1324
(dp1325
g73
(dp1326
g93
g94
ssg82
g1320
sg75
(lp1327
S'wsgi_run_once'
p1328
asbag68
(g89
g70
NtRp1329
(dp1330
g73
(dp1331
g100
g101
ssg82
g1320
sg75
(lp1332
S':'
asbag68
(g89
g70
NtRp1333
(dp1334
g73
(dp1335
sg82
g1320
sg75
(lp1336
g68
(g69
g70
NtRp1337
(dp1338
g73
(dp1339
g81
I4
ssg82
g1333
sg75
(lp1340
g111
asbasbasbag68
(g84
g70
NtRp1341
(dp1342
g73
(dp1343
sg82
g463
sg75
(lp1344
g68
(g89
g70
NtRp1345
(dp1346
g73
(dp1347
g93
g94
ssg82
g1341
sg75
(lp1348
S'wsgi_url_scheme'
p1349
asbag68
(g89
g70
NtRp1350
(dp1351
g73
(dp1352
g100
g101
ssg82
g1341
sg75
(lp1353
S':'
asbag68
(g89
g70
NtRp1354
(dp1355
g73
(dp1356
sg82
g1341
sg75
(lp1357
g68
(g69
g70
NtRp1358
(dp1359
g73
(dp1360
g81
I4
ssg82
g1354
sg75
(lp1361
S'http'
p1362
asbasbasbag68
(g84
g70
NtRp1363
(dp1364
g73
(dp1365
sg82
g463
sg75
(lp1366
g68
(g89
g70
NtRp1367
(dp1368
g73
(dp1369
g93
g94
ssg82
g1363
sg75
(lp1370
S'wsgi_version'
p1371
asbag68
(g89
g70
NtRp1372
(dp1373
g73
(dp1374
g100
g101
ssg82
g1363
sg75
(lp1375
S':'
asbag68
(g89
g70
NtRp1376
(dp1377
g73
(dp1378
sg82
g1363
sg75
(lp1379
g68
(g69
g70
NtRp1380
(dp1381
g73
(dp1382
g81
I4
ssg82
g1376
sg75
(lp1383
g68
(g77
g70
NtRp1384
(dp1385
g73
(dp1386
g81
I3
ssg82
Nsg75
(lp1387
g68
(g84
g70
NtRp1388
(dp1389
g73
(dp1390
sg82
g1384
sg75
(lp1391
g68
(g89
g70
NtRp1392
(dp1393
g73
(dp1394
sg82
g1388
sg75
(lp1395
g68
(g69
g70
NtRp1396
(dp1397
g73
(dp1398
g81
I3
ssg82
g1392
sg75
(lp1399
S'1'
asbasbasbag68
(g84
g70
NtRp1400
(dp1401
g73
(dp1402
sg82
g1384
sg75
(lp1403
g68
(g89
g70
NtRp1404
(dp1405
g73
(dp1406
sg82
g1400
sg75
(lp1407
g68
(g69
g70
NtRp1408
(dp1409
g73
(dp1410
g81
I3
ssg82
g1404
sg75
(lp1411
S'0'
asbasbasbasbasbasbasbasbasbasbasbag68
(g84
g70
NtRp1412
(dp1413
g73
(dp1414
sg82
g78
sg75
(lp1415
g68
(g89
g70
NtRp1416
(dp1417
g73
(dp1418
g93
g94
ssg82
g1412
sg75
(lp1419
S'extension'
p1420
asbag68
(g89
g70
NtRp1421
(dp1422
g73
(dp1423
g100
g101
ssg82
g1412
sg75
(lp1424
S':'
asbag68
(g89
g70
NtRp1425
(dp1426
g73
(dp1427
sg82
g1412
sg75
(lp1428
g68
(g69
g70
NtRp1429
(dp1430
g73
(dp1431
g81
I5
ssg82
g1425
sg75
(lp1432
S'html'
p1433
asbasbasbag68
(g84
g70
NtRp1434
(dp1435
g73
(dp1436
sg82
g78
sg75
(lp1437
g68
(g89
g70
NtRp1438
(dp1439
g73
(dp1440
g93
g94
ssg82
g1434
sg75
(lp1441
S'folder'
p1442
asbag68
(g89
g70
NtRp1443
(dp1444
g73
(dp1445
g100
g101
ssg82
g1434
sg75
(lp1446
S':'
asbag68
(g89
g70
NtRp1447
(dp1448
g73
(dp1449
sg82
g1434
sg75
(lp1450
g68
(g69
g70
NtRp1451
(dp1452
g73
(dp1453
g81
I5
ssg82
g1447
sg75
(lp1454
S'E:\\Programming\\Python\\web2py\\applications\\vote_up\\'
p1455
asbasbasbag68
(g84
g70
NtRp1456
(dp1457
g73
(dp1458
sg82
g78
sg75
(lp1459
g68
(g89
g70
NtRp1460
(dp1461
g73
(dp1462
g93
g94
ssg82
g1456
sg75
(lp1463
S'function'
p1464
asbag68
(g89
g70
NtRp1465
(dp1466
g73
(dp1467
g100
g101
ssg82
g1456
sg75
(lp1468
S':'
asbag68
(g89
g70
NtRp1469
(dp1470
g73
(dp1471
sg82
g1456
sg75
(lp1472
g68
(g69
g70
NtRp1473
(dp1474
g73
(dp1475
g81
I5
ssg82
g1469
sg75
(lp1476
S'index'
p1477
asbasbasbag68
(g84
g70
NtRp1478
(dp1479
g73
(dp1480
sg82
g78
sg75
(lp1481
g68
(g89
g70
NtRp1482
(dp1483
g73
(dp1484
g93
g94
ssg82
g1478
sg75
(lp1485
S'get_vars'
p1486
asbag68
(g89
g70
NtRp1487
(dp1488
g73
(dp1489
g100
g101
ssg82
g1478
sg75
(lp1490
S':'
asbag68
(g89
g70
NtRp1491
(dp1492
g73
(dp1493
sg82
g1478
sg75
(lp1494
g68
(g69
g70
NtRp1495
(dp1496
g73
(dp1497
g81
I5
ssg82
g1491
sg75
(lp1498
g68
(g77
g70
NtRp1499
(dp1500
g73
(dp1501
g81
I4
ssg82
Nsg75
(lp1502
sbasbasbasbag68
(g84
g70
NtRp1503
(dp1504
g73
(dp1505
sg82
g78
sg75
(lp1506
g68
(g89
g70
NtRp1507
(dp1508
g73
(dp1509
g93
g94
ssg82
g1503
sg75
(lp1510
S'global_settings'
p1511
asbag68
(g89
g70
NtRp1512
(dp1513
g73
(dp1514
g100
g101
ssg82
g1503
sg75
(lp1515
S':'
asbag68
(g89
g70
NtRp1516
(dp1517
g73
(dp1518
sg82
g1503
sg75
(lp1519
g68
(g69
g70
NtRp1520
(dp1521
g73
(dp1522
g81
I5
ssg82
g1516
sg75
(lp1523
g68
(g77
g70
NtRp1524
(dp1525
g73
(dp1526
g81
I4
ssg82
Nsg75
(lp1527
g68
(g84
g70
NtRp1528
(dp1529
g73
(dp1530
sg82
g1524
sg75
(lp1531
g68
(g89
g70
NtRp1532
(dp1533
g73
(dp1534
g93
g94
ssg82
g1528
sg75
(lp1535
g475
asbag68
(g89
g70
NtRp1536
(dp1537
g73
(dp1538
g100
g101
ssg82
g1528
sg75
(lp1539
S':'
asbag68
(g89
g70
NtRp1540
(dp1541
g73
(dp1542
sg82
g1528
sg75
(lp1543
g68
(g69
g70
NtRp1544
(dp1545
g73
(dp1546
g81
I4
ssg82
g1540
sg75
(lp1547
S"set(['E:\\\\Programming\\\\Python\\\\web2py\\\\applications\\\\vote_up\\\\', 'E:\\\\Programming\\\\Python\\\\web2py\\\\applications\\\\welcome\\\\'])"
p1548
asbasbasbag68
(g84
g70
NtRp1549
(dp1550
g73
(dp1551
sg82
g1524
sg75
(lp1552
g68
(g89
g70
NtRp1553
(dp1554
g73
(dp1555
g93
g94
ssg82
g1549
sg75
(lp1556
g497
asbag68
(g89
g70
NtRp1557
(dp1558
g73
(dp1559
g100
g101
ssg82
g1549
sg75
(lp1560
S':'
asbag68
(g89
g70
NtRp1561
(dp1562
g73
(dp1563
sg82
g1549
sg75
(lp1564
g68
(g69
g70
NtRp1565
(dp1566
g73
(dp1567
g81
I4
ssg82
g1561
sg75
(lp1568
g510
asbasbasbag68
(g84
g70
NtRp1569
(dp1570
g73
(dp1571
sg82
g1524
sg75
(lp1572
g68
(g89
g70
NtRp1573
(dp1574
g73
(dp1575
g93
g94
ssg82
g1569
sg75
(lp1576
g519
asbag68
(g89
g70
NtRp1577
(dp1578
g73
(dp1579
g100
g101
ssg82
g1569
sg75
(lp1580
S':'
asbag68
(g89
g70
NtRp1581
(dp1582
g73
(dp1583
sg82
g1569
sg75
(lp1584
g68
(g69
g70
NtRp1585
(dp1586
g73
(dp1587
g81
I4
ssg82
g1581
sg75
(lp1588
g68
(g77
g70
NtRp1589
(dp1590
g73
(dp1591
g81
I3
ssg82
Nsg75
(lp1592
sbasbasbasbag68
(g84
g70
NtRp1593
(dp1594
g73
(dp1595
sg82
g1524
sg75
(lp1596
g68
(g89
g70
NtRp1597
(dp1598
g73
(dp1599
g93
g94
ssg82
g1593
sg75
(lp1600
g544
asbag68
(g89
g70
NtRp1601
(dp1602
g73
(dp1603
g100
g101
ssg82
g1593
sg75
(lp1604
S':'
asbag68
(g89
g70
NtRp1605
(dp1606
g73
(dp1607
sg82
g1593
sg75
(lp1608
g68
(g69
g70
NtRp1609
(dp1610
g73
(dp1611
g81
I4
ssg82
g1605
sg75
(lp1612
S"<Values at 0x2803710: {'verbose': False, 'ip': '127.0.0.1', 'shutdown_timeout': 5, 'taskbar': False, 'nocron': False, 'pid_filename': 'httpserver.pid', 'maxthreads': None, 'softcron': False, 'server_name': '1901200822091P', 'bpython': False, 'nogui': False, 'port': 8000, 'extcron': False, 'debuglevel': 30, 'test': None, 'folder': 'E:\\\\Programming\\\\Python\\\\web2py', 'config': '', 'import_models': False, 'winservice': '', 'shell': None, 'run': '', 'log_filename': 'httpserver.log', 'args': [''], 'socket_timeout': 1, 'ssl_ca_certificate': None, 'scheduler': None, 'profiler_filename': None, 'ssl_private_key': '', 'password': '<ask>', 'request_queue_size': 5, 'ssl_certificate': '', 'cronjob': False, 'numthreads': None, 'quiet': False, 'interfaces': None, 'minthreads': None, 'timeout': 10, 'plain': False, 'nobanner': False}>"
p1613
asbasbasbag68
(g84
g70
NtRp1614
(dp1615
g73
(dp1616
sg82
g1524
sg75
(lp1617
g68
(g89
g70
NtRp1618
(dp1619
g73
(dp1620
g93
g94
ssg82
g1614
sg75
(lp1621
g566
asbag68
(g89
g70
NtRp1622
(dp1623
g73
(dp1624
g100
g101
ssg82
g1614
sg75
(lp1625
S':'
asbag68
(g89
g70
NtRp1626
(dp1627
g73
(dp1628
sg82
g1614
sg75
(lp1629
g68
(g69
g70
NtRp1630
(dp1631
g73
(dp1632
g81
I4
ssg82
g1626
sg75
(lp1633
S'set([])'
p1634
asbasbasbag68
(g84
g70
NtRp1635
(dp1636
g73
(dp1637
sg82
g1524
sg75
(lp1638
g68
(g89
g70
NtRp1639
(dp1640
g73
(dp1641
g93
g94
ssg82
g1635
sg75
(lp1642
g588
asbag68
(g89
g70
NtRp1643
(dp1644
g73
(dp1645
g100
g101
ssg82
g1635
sg75
(lp1646
S':'
asbag68
(g89
g70
NtRp1647
(dp1648
g73
(dp1649
sg82
g1635
sg75
(lp1650
g68
(g69
g70
NtRp1651
(dp1652
g73
(dp1653
g81
I4
ssg82
g1647
sg75
(lp1654
g111
asbasbasbag68
(g84
g70
NtRp1655
(dp1656
g73
(dp1657
sg82
g1524
sg75
(lp1658
g68
(g89
g70
NtRp1659
(dp1660
g73
(dp1661
g93
g94
ssg82
g1655
sg75
(lp1662
g609
asbag68
(g89
g70
NtRp1663
(dp1664
g73
(dp1665
g100
g101
ssg82
g1655
sg75
(lp1666
S':'
asbag68
(g89
g70
NtRp1667
(dp1668
g73
(dp1669
sg82
g1655
sg75
(lp1670
g68
(g69
g70
NtRp1671
(dp1672
g73
(dp1673
g81
I4
ssg82
g1667
sg75
(lp1674
g622
asbasbasbag68
(g84
g70
NtRp1675
(dp1676
g73
(dp1677
sg82
g1524
sg75
(lp1678
g68
(g89
g70
NtRp1679
(dp1680
g73
(dp1681
g93
g94
ssg82
g1675
sg75
(lp1682
g829
asbag68
(g89
g70
NtRp1683
(dp1684
g73
(dp1685
g100
g101
ssg82
g1675
sg75
(lp1686
S':'
asbag68
(g89
g70
NtRp1687
(dp1688
g73
(dp1689
sg82
g1675
sg75
(lp1690
g68
(g69
g70
NtRp1691
(dp1692
g73
(dp1693
g81
I4
ssg82
g1687
sg75
(lp1694
g111
asbasbasbag68
(g84
g70
NtRp1695
(dp1696
g73
(dp1697
sg82
g1524
sg75
(lp1698
g68
(g89
g70
NtRp1699
(dp1700
g73
(dp1701
g93
g94
ssg82
g1695
sg75
(lp1702
g850
asbag68
(g89
g70
NtRp1703
(dp1704
g73
(dp1705
g100
g101
ssg82
g1695
sg75
(lp1706
S':'
asbag68
(g89
g70
NtRp1707
(dp1708
g73
(dp1709
sg82
g1695
sg75
(lp1710
g68
(g69
g70
NtRp1711
(dp1712
g73
(dp1713
g81
I4
ssg82
g1707
sg75
(lp1714
g111
asbasbasbag68
(g84
g70
NtRp1715
(dp1716
g73
(dp1717
sg82
g1524
sg75
(lp1718
g68
(g89
g70
NtRp1719
(dp1720
g73
(dp1721
g93
g94
ssg82
g1715
sg75
(lp1722
g1088
asbag68
(g89
g70
NtRp1723
(dp1724
g73
(dp1725
g100
g101
ssg82
g1715
sg75
(lp1726
S':'
asbag68
(g89
g70
NtRp1727
(dp1728
g73
(dp1729
sg82
g1715
sg75
(lp1730
g68
(g69
g70
NtRp1731
(dp1732
g73
(dp1733
g81
I4
ssg82
g1727
sg75
(lp1734
g1101
asbasbasbag68
(g84
g70
NtRp1735
(dp1736
g73
(dp1737
sg82
g1524
sg75
(lp1738
g68
(g89
g70
NtRp1739
(dp1740
g73
(dp1741
g93
g94
ssg82
g1735
sg75
(lp1742
g1131
asbag68
(g89
g70
NtRp1743
(dp1744
g73
(dp1745
g100
g101
ssg82
g1735
sg75
(lp1746
S':'
asbag68
(g89
g70
NtRp1747
(dp1748
g73
(dp1749
sg82
g1735
sg75
(lp1750
g68
(g69
g70
NtRp1751
(dp1752
g73
(dp1753
g81
I4
ssg82
g1747
sg75
(lp1754
g68
(g77
g70
NtRp1755
(dp1756
g73
(dp1757
g81
I3
ssg82
Nsg75
(lp1758
g68
(g84
g70
NtRp1759
(dp1760
g73
(dp1761
sg82
g1755
sg75
(lp1762
g68
(g89
g70
NtRp1763
(dp1764
g73
(dp1765
sg82
g1759
sg75
(lp1766
g68
(g69
g70
NtRp1767
(dp1768
g73
(dp1769
g81
I3
ssg82
g1763
sg75
(lp1770
S'1'
asbasbasbag68
(g84
g70
NtRp1771
(dp1772
g73
(dp1773
sg82
g1755
sg75
(lp1774
g68
(g89
g70
NtRp1775
(dp1776
g73
(dp1777
sg82
g1771
sg75
(lp1778
g68
(g69
g70
NtRp1779
(dp1780
g73
(dp1781
g81
I3
ssg82
g1775
sg75
(lp1782
S'99'
p1783
asbasbasbag68
(g84
g70
NtRp1784
(dp1785
g73
(dp1786
sg82
g1755
sg75
(lp1787
g68
(g89
g70
NtRp1788
(dp1789
g73
(dp1790
sg82
g1784
sg75
(lp1791
g68
(g69
g70
NtRp1792
(dp1793
g73
(dp1794
g81
I3
ssg82
g1788
sg75
(lp1795
S'4'
asbasbasbag68
(g84
g70
NtRp1796
(dp1797
g73
(dp1798
sg82
g1755
sg75
(lp1799
g68
(g89
g70
NtRp1800
(dp1801
g73
(dp1802
sg82
g1796
sg75
(lp1803
g68
(g69
g70
NtRp1804
(dp1805
g73
(dp1806
g81
I3
ssg82
g1800
sg75
(lp1807
S'datetime.datetime(2011, 12, 14, 14, 46, 14)'
p1808
asbasbasbag68
(g84
g70
NtRp1809
(dp1810
g73
(dp1811
sg82
g1755
sg75
(lp1812
g68
(g89
g70
NtRp1813
(dp1814
g73
(dp1815
sg82
g1809
sg75
(lp1816
g68
(g69
g70
NtRp1817
(dp1818
g73
(dp1819
g81
I3
ssg82
g1813
sg75
(lp1820
g1210
asbasbasbasbasbasbasbasbasbasbasbag68
(g84
g70
NtRp1821
(dp1822
g73
(dp1823
sg82
g78
sg75
(lp1824
g68
(g89
g70
NtRp1825
(dp1826
g73
(dp1827
g93
g94
ssg82
g1821
sg75
(lp1828
S'is_https'
p1829
asbag68
(g89
g70
NtRp1830
(dp1831
g73
(dp1832
g100
g101
ssg82
g1821
sg75
(lp1833
S':'
asbag68
(g89
g70
NtRp1834
(dp1835
g73
(dp1836
sg82
g1821
sg75
(lp1837
g68
(g69
g70
NtRp1838
(dp1839
g73
(dp1840
g81
I5
ssg82
g1834
sg75
(lp1841
g111
asbasbasbag68
(g84
g70
NtRp1842
(dp1843
g73
(dp1844
sg82
g78
sg75
(lp1845
g68
(g89
g70
NtRp1846
(dp1847
g73
(dp1848
g93
g94
ssg82
g1842
sg75
(lp1849
S'is_local'
p1850
asbag68
(g89
g70
NtRp1851
(dp1852
g73
(dp1853
g100
g101
ssg82
g1842
sg75
(lp1854
S':'
asbag68
(g89
g70
NtRp1855
(dp1856
g73
(dp1857
sg82
g1842
sg75
(lp1858
g68
(g69
g70
NtRp1859
(dp1860
g73
(dp1861
g81
I5
ssg82
g1855
sg75
(lp1862
g1319
asbasbasbag68
(g84
g70
NtRp1863
(dp1864
g73
(dp1865
sg82
g78
sg75
(lp1866
g68
(g89
g70
NtRp1867
(dp1868
g73
(dp1869
g93
g94
ssg82
g1863
sg75
(lp1870
S'is_restful'
p1871
asbag68
(g89
g70
NtRp1872
(dp1873
g73
(dp1874
g100
g101
ssg82
g1863
sg75
(lp1875
S':'
asbag68
(g89
g70
NtRp1876
(dp1877
g73
(dp1878
sg82
g1863
sg75
(lp1879
g68
(g69
g70
NtRp1880
(dp1881
g73
(dp1882
g81
I5
ssg82
g1876
sg75
(lp1883
g111
asbasbasbag68
(g84
g70
NtRp1884
(dp1885
g73
(dp1886
sg82
g78
sg75
(lp1887
g68
(g89
g70
NtRp1888
(dp1889
g73
(dp1890
g93
g94
ssg82
g1884
sg75
(lp1891
S'now'
p1892
asbag68
(g89
g70
NtRp1893
(dp1894
g73
(dp1895
g100
g101
ssg82
g1884
sg75
(lp1896
S':'
asbag68
(g89
g70
NtRp1897
(dp1898
g73
(dp1899
sg82
g1884
sg75
(lp1900
g68
(g69
g70
NtRp1901
(dp1902
g73
(dp1903
g81
I5
ssg82
g1897
sg75
(lp1904
S'datetime.datetime(2012, 2, 14, 10, 55, 32, 309000)'
p1905
asbasbasbag68
(g84
g70
NtRp1906
(dp1907
g73
(dp1908
sg82
g78
sg75
(lp1909
g68
(g89
g70
NtRp1910
(dp1911
g73
(dp1912
g93
g94
ssg82
g1906
sg75
(lp1913
S'post_vars'
p1914
asbag68
(g89
g70
NtRp1915
(dp1916
g73
(dp1917
g100
g101
ssg82
g1906
sg75
(lp1918
S':'
asbag68
(g89
g70
NtRp1919
(dp1920
g73
(dp1921
sg82
g1906
sg75
(lp1922
g68
(g69
g70
NtRp1923
(dp1924
g73
(dp1925
g81
I5
ssg82
g1919
sg75
(lp1926
g68
(g77
g70
NtRp1927
(dp1928
g73
(dp1929
g81
I4
ssg82
Nsg75
(lp1930
sbasbasbasbag68
(g84
g70
NtRp1931
(dp1932
g73
(dp1933
sg82
g78
sg75
(lp1934
g68
(g89
g70
NtRp1935
(dp1936
g73
(dp1937
g93
g94
ssg82
g1931
sg75
(lp1938
S'url'
p1939
asbag68
(g89
g70
NtRp1940
(dp1941
g73
(dp1942
g100
g101
ssg82
g1931
sg75
(lp1943
S':'
asbag68
(g89
g70
NtRp1944
(dp1945
g73
(dp1946
sg82
g1931
sg75
(lp1947
g68
(g69
g70
NtRp1948
(dp1949
g73
(dp1950
g81
I5
ssg82
g1944
sg75
(lp1951
S'/vote_up/default/index'
p1952
asbasbasbag68
(g84
g70
NtRp1953
(dp1954
g73
(dp1955
sg82
g78
sg75
(lp1956
g68
(g89
g70
NtRp1957
(dp1958
g73
(dp1959
g93
g94
ssg82
g1953
sg75
(lp1960
S'utcnow'
p1961
asbag68
(g89
g70
NtRp1962
(dp1963
g73
(dp1964
g100
g101
ssg82
g1953
sg75
(lp1965
S':'
asbag68
(g89
g70
NtRp1966
(dp1967
g73
(dp1968
sg82
g1953
sg75
(lp1969
g68
(g69
g70
NtRp1970
(dp1971
g73
(dp1972
g81
I5
ssg82
g1966
sg75
(lp1973
S'datetime.datetime(2012, 2, 14, 5, 25, 32, 309000)'
p1974
asbasbasbag68
(g84
g70
NtRp1975
(dp1976
g73
(dp1977
sg82
g78
sg75
(lp1978
g68
(g89
g70
NtRp1979
(dp1980
g73
(dp1981
g93
g94
ssg82
g1975
sg75
(lp1982
S'uuid'
p1983
asbag68
(g89
g70
NtRp1984
(dp1985
g73
(dp1986
g100
g101
ssg82
g1975
sg75
(lp1987
S':'
asbag68
(g89
g70
NtRp1988
(dp1989
g73
(dp1990
sg82
g1975
sg75
(lp1991
g68
(g69
g70
NtRp1992
(dp1993
g73
(dp1994
g81
I5
ssg82
g1988
sg75
(lp1995
S'vote_up/127.0.0.1.2012-02-14.10-55-32.4e5004a0-cb29-4b7c-b1a0-17c28c209493'
p1996
asbasbasbag68
(g84
g70
NtRp1997
(dp1998
g73
(dp1999
sg82
g78
sg75
(lp2000
g68
(g89
g70
NtRp2001
(dp2002
g73
(dp2003
g93
g94
ssg82
g1997
sg75
(lp2004
S'vars'
p2005
asbag68
(g89
g70
NtRp2006
(dp2007
g73
(dp2008
g100
g101
ssg82
g1997
sg75
(lp2009
S':'
asbag68
(g89
g70
NtRp2010
(dp2011
g73
(dp2012
sg82
g1997
sg75
(lp2013
g68
(g69
g70
NtRp2014
(dp2015
g73
(dp2016
g81
I5
ssg82
g2010
sg75
(lp2017
g68
(g77
g70
NtRp2018
(dp2019
g73
(dp2020
g81
I4
ssg82
Nsg75
(lp2021
sbasbasbasbag68
(g84
g70
NtRp2022
(dp2023
g73
(dp2024
sg82
g78
sg75
(lp2025
g68
(g89
g70
NtRp2026
(dp2027
g73
(dp2028
g93
g94
ssg82
g2022
sg75
(lp2029
S'wsgi'
p2030
asbag68
(g89
g70
NtRp2031
(dp2032
g73
(dp2033
g100
g101
ssg82
g2022
sg75
(lp2034
S':'
asbag68
(g89
g70
NtRp2035
(dp2036
g73
(dp2037
sg82
g2022
sg75
(lp2038
g68
(g69
g70
NtRp2039
(dp2040
g73
(dp2041
g81
I5
ssg82
g2035
sg75
(lp2042
g68
(g77
g70
NtRp2043
(dp2044
g73
(dp2045
g81
I4
ssg82
Nsg75
(lp2046
g68
(g84
g70
NtRp2047
(dp2048
g73
(dp2049
sg82
g2043
sg75
(lp2050
g68
(g89
g70
NtRp2051
(dp2052
g73
(dp2053
g93
g94
ssg82
g2047
sg75
(lp2054
S'environ'
p2055
asbag68
(g89
g70
NtRp2056
(dp2057
g73
(dp2058
g100
g101
ssg82
g2047
sg75
(lp2059
S':'
asbag68
(g89
g70
NtRp2060
(dp2061
g73
(dp2062
sg82
g2047
sg75
(lp2063
g68
(g69
g70
NtRp2064
(dp2065
g73
(dp2066
g81
I4
ssg82
g2060
sg75
(lp2067
g68
(g77
g70
NtRp2068
(dp2069
g73
(dp2070
g81
I3
ssg82
Nsg75
(lp2071
g68
(g84
g70
NtRp2072
(dp2073
g73
(dp2074
sg82
g2068
sg75
(lp2075
g68
(g89
g70
NtRp2076
(dp2077
g73
(dp2078
g93
g94
ssg82
g2072
sg75
(lp2079
S'HTTP_ACCEPT'
p2080
asbag68
(g89
g70
NtRp2081
(dp2082
g73
(dp2083
g100
g101
ssg82
g2072
sg75
(lp2084
S':'
asbag68
(g89
g70
NtRp2085
(dp2086
g73
(dp2087
sg82
g2072
sg75
(lp2088
g68
(g69
g70
NtRp2089
(dp2090
g73
(dp2091
g81
I3
ssg82
g2085
sg75
(lp2092
g644
asbasbasbag68
(g84
g70
NtRp2093
(dp2094
g73
(dp2095
sg82
g2068
sg75
(lp2096
g68
(g89
g70
NtRp2097
(dp2098
g73
(dp2099
g93
g94
ssg82
g2093
sg75
(lp2100
S'HTTP_ACCEPT_CHARSET'
p2101
asbag68
(g89
g70
NtRp2102
(dp2103
g73
(dp2104
g100
g101
ssg82
g2093
sg75
(lp2105
S':'
asbag68
(g89
g70
NtRp2106
(dp2107
g73
(dp2108
sg82
g2093
sg75
(lp2109
g68
(g69
g70
NtRp2110
(dp2111
g73
(dp2112
g81
I3
ssg82
g2106
sg75
(lp2113
g666
asbasbasbag68
(g84
g70
NtRp2114
(dp2115
g73
(dp2116
sg82
g2068
sg75
(lp2117
g68
(g89
g70
NtRp2118
(dp2119
g73
(dp2120
g93
g94
ssg82
g2114
sg75
(lp2121
S'HTTP_ACCEPT_ENCODING'
p2122
asbag68
(g89
g70
NtRp2123
(dp2124
g73
(dp2125
g100
g101
ssg82
g2114
sg75
(lp2126
S':'
asbag68
(g89
g70
NtRp2127
(dp2128
g73
(dp2129
sg82
g2114
sg75
(lp2130
g68
(g69
g70
NtRp2131
(dp2132
g73
(dp2133
g81
I3
ssg82
g2127
sg75
(lp2134
g688
asbasbasbag68
(g84
g70
NtRp2135
(dp2136
g73
(dp2137
sg82
g2068
sg75
(lp2138
g68
(g89
g70
NtRp2139
(dp2140
g73
(dp2141
g93
g94
ssg82
g2135
sg75
(lp2142
S'HTTP_ACCEPT_LANGUAGE'
p2143
asbag68
(g89
g70
NtRp2144
(dp2145
g73
(dp2146
g100
g101
ssg82
g2135
sg75
(lp2147
S':'
asbag68
(g89
g70
NtRp2148
(dp2149
g73
(dp2150
sg82
g2135
sg75
(lp2151
g68
(g69
g70
NtRp2152
(dp2153
g73
(dp2154
g81
I3
ssg82
g2148
sg75
(lp2155
g710
asbasbasbag68
(g84
g70
NtRp2156
(dp2157
g73
(dp2158
sg82
g2068
sg75
(lp2159
g68
(g89
g70
NtRp2160
(dp2161
g73
(dp2162
g93
g94
ssg82
g2156
sg75
(lp2163
S'HTTP_CONNECTION'
p2164
asbag68
(g89
g70
NtRp2165
(dp2166
g73
(dp2167
g100
g101
ssg82
g2156
sg75
(lp2168
S':'
asbag68
(g89
g70
NtRp2169
(dp2170
g73
(dp2171
sg82
g2156
sg75
(lp2172
g68
(g69
g70
NtRp2173
(dp2174
g73
(dp2175
g81
I3
ssg82
g2169
sg75
(lp2176
g732
asbasbasbag68
(g84
g70
NtRp2177
(dp2178
g73
(dp2179
sg82
g2068
sg75
(lp2180
g68
(g89
g70
NtRp2181
(dp2182
g73
(dp2183
g93
g94
ssg82
g2177
sg75
(lp2184
S'HTTP_COOKIE'
p2185
asbag68
(g89
g70
NtRp2186
(dp2187
g73
(dp2188
g100
g101
ssg82
g2177
sg75
(lp2189
S':'
asbag68
(g89
g70
NtRp2190
(dp2191
g73
(dp2192
sg82
g2177
sg75
(lp2193
g68
(g69
g70
NtRp2194
(dp2195
g73
(dp2196
g81
I3
ssg82
g2190
sg75
(lp2197
g754
asbasbasbag68
(g84
g70
NtRp2198
(dp2199
g73
(dp2200
sg82
g2068
sg75
(lp2201
g68
(g89
g70
NtRp2202
(dp2203
g73
(dp2204
g93
g94
ssg82
g2198
sg75
(lp2205
S'HTTP_HOST'
p2206
asbag68
(g89
g70
NtRp2207
(dp2208
g73
(dp2209
g100
g101
ssg82
g2198
sg75
(lp2210
S':'
asbag68
(g89
g70
NtRp2211
(dp2212
g73
(dp2213
sg82
g2198
sg75
(lp2214
g68
(g69
g70
NtRp2215
(dp2216
g73
(dp2217
g81
I3
ssg82
g2211
sg75
(lp2218
g776
asbasbasbag68
(g84
g70
NtRp2219
(dp2220
g73
(dp2221
sg82
g2068
sg75
(lp2222
g68
(g89
g70
NtRp2223
(dp2224
g73
(dp2225
g93
g94
ssg82
g2219
sg75
(lp2226
S'HTTP_USER_AGENT'
p2227
asbag68
(g89
g70
NtRp2228
(dp2229
g73
(dp2230
g100
g101
ssg82
g2219
sg75
(lp2231
S':'
asbag68
(g89
g70
NtRp2232
(dp2233
g73
(dp2234
sg82
g2219
sg75
(lp2235
g68
(g69
g70
NtRp2236
(dp2237
g73
(dp2238
g81
I3
ssg82
g2232
sg75
(lp2239
g798
asbasbasbag68
(g84
g70
NtRp2240
(dp2241
g73
(dp2242
sg82
g2068
sg75
(lp2243
g68
(g89
g70
NtRp2244
(dp2245
g73
(dp2246
g93
g94
ssg82
g2240
sg75
(lp2247
S'HTTP_X_PURPOSE'
p2248
asbag68
(g89
g70
NtRp2249
(dp2250
g73
(dp2251
g100
g101
ssg82
g2240
sg75
(lp2252
S':'
asbag68
(g89
g70
NtRp2253
(dp2254
g73
(dp2255
sg82
g2240
sg75
(lp2256
g68
(g69
g70
NtRp2257
(dp2258
g73
(dp2259
g81
I3
ssg82
g2253
sg75
(lp2260
g820
asbasbasbag68
(g84
g70
NtRp2261
(dp2262
g73
(dp2263
sg82
g2068
sg75
(lp2264
g68
(g89
g70
NtRp2265
(dp2266
g73
(dp2267
g93
g94
ssg82
g2261
sg75
(lp2268
S'PATH_INFO'
p2269
asbag68
(g89
g70
NtRp2270
(dp2271
g73
(dp2272
g100
g101
ssg82
g2261
sg75
(lp2273
S':'
asbag68
(g89
g70
NtRp2274
(dp2275
g73
(dp2276
sg82
g2261
sg75
(lp2277
g68
(g69
g70
NtRp2278
(dp2279
g73
(dp2280
g81
I3
ssg82
g2274
sg75
(lp2281
g884
asbasbasbag68
(g84
g70
NtRp2282
(dp2283
g73
(dp2284
sg82
g2068
sg75
(lp2285
g68
(g89
g70
NtRp2286
(dp2287
g73
(dp2288
g93
g94
ssg82
g2282
sg75
(lp2289
S'QUERY_STRING'
p2290
asbag68
(g89
g70
NtRp2291
(dp2292
g73
(dp2293
g100
g101
ssg82
g2282
sg75
(lp2294
S':'
asbag68
(g89
g70
NtRp2295
(dp2296
g73
(dp2297
sg82
g2282
sg75
(lp2298
g68
(g69
g70
NtRp2299
(dp2300
g73
(dp2301
g81
I3
ssg82
g2295
sg75
(lp2302
S''
asbasbasbag68
(g84
g70
NtRp2303
(dp2304
g73
(dp2305
sg82
g2068
sg75
(lp2306
g68
(g89
g70
NtRp2307
(dp2308
g73
(dp2309
g93
g94
ssg82
g2303
sg75
(lp2310
S'REMOTE_ADDR'
p2311
asbag68
(g89
g70
NtRp2312
(dp2313
g73
(dp2314
g100
g101
ssg82
g2303
sg75
(lp2315
S':'
asbag68
(g89
g70
NtRp2316
(dp2317
g73
(dp2318
sg82
g2303
sg75
(lp2319
g68
(g69
g70
NtRp2320
(dp2321
g73
(dp2322
g81
I3
ssg82
g2316
sg75
(lp2323
g201
asbasbasbag68
(g84
g70
NtRp2324
(dp2325
g73
(dp2326
sg82
g2068
sg75
(lp2327
g68
(g89
g70
NtRp2328
(dp2329
g73
(dp2330
g93
g94
ssg82
g2324
sg75
(lp2331
S'REMOTE_PORT'
p2332
asbag68
(g89
g70
NtRp2333
(dp2334
g73
(dp2335
g100
g101
ssg82
g2324
sg75
(lp2336
S':'
asbag68
(g89
g70
NtRp2337
(dp2338
g73
(dp2339
sg82
g2324
sg75
(lp2340
g68
(g69
g70
NtRp2341
(dp2342
g73
(dp2343
g81
I3
ssg82
g2337
sg75
(lp2344
g948
asbasbasbag68
(g84
g70
NtRp2345
(dp2346
g73
(dp2347
sg82
g2068
sg75
(lp2348
g68
(g89
g70
NtRp2349
(dp2350
g73
(dp2351
g93
g94
ssg82
g2345
sg75
(lp2352
S'REQUEST_METHOD'
p2353
asbag68
(g89
g70
NtRp2354
(dp2355
g73
(dp2356
g100
g101
ssg82
g2345
sg75
(lp2357
S':'
asbag68
(g89
g70
NtRp2358
(dp2359
g73
(dp2360
sg82
g2345
sg75
(lp2361
g68
(g69
g70
NtRp2362
(dp2363
g73
(dp2364
g81
I3
ssg82
g2358
sg75
(lp2365
g970
asbasbasbag68
(g84
g70
NtRp2366
(dp2367
g73
(dp2368
sg82
g2068
sg75
(lp2369
g68
(g89
g70
NtRp2370
(dp2371
g73
(dp2372
g93
g94
ssg82
g2366
sg75
(lp2373
S'SCRIPT_NAME'
p2374
asbag68
(g89
g70
NtRp2375
(dp2376
g73
(dp2377
g100
g101
ssg82
g2366
sg75
(lp2378
S':'
asbag68
(g89
g70
NtRp2379
(dp2380
g73
(dp2381
sg82
g2366
sg75
(lp2382
g68
(g69
g70
NtRp2383
(dp2384
g73
(dp2385
g81
I3
ssg82
g2379
sg75
(lp2386
S''
asbasbasbag68
(g84
g70
NtRp2387
(dp2388
g73
(dp2389
sg82
g2068
sg75
(lp2390
g68
(g89
g70
NtRp2391
(dp2392
g73
(dp2393
g93
g94
ssg82
g2387
sg75
(lp2394
S'SERVER_NAME'
p2395
asbag68
(g89
g70
NtRp2396
(dp2397
g73
(dp2398
g100
g101
ssg82
g2387
sg75
(lp2399
S':'
asbag68
(g89
g70
NtRp2400
(dp2401
g73
(dp2402
sg82
g2387
sg75
(lp2403
g68
(g69
g70
NtRp2404
(dp2405
g73
(dp2406
g81
I3
ssg82
g2400
sg75
(lp2407
g1013
asbasbasbag68
(g84
g70
NtRp2408
(dp2409
g73
(dp2410
sg82
g2068
sg75
(lp2411
g68
(g89
g70
NtRp2412
(dp2413
g73
(dp2414
g93
g94
ssg82
g2408
sg75
(lp2415
S'SERVER_PORT'
p2416
asbag68
(g89
g70
NtRp2417
(dp2418
g73
(dp2419
g100
g101
ssg82
g2408
sg75
(lp2420
S':'
asbag68
(g89
g70
NtRp2421
(dp2422
g73
(dp2423
sg82
g2408
sg75
(lp2424
g68
(g69
g70
NtRp2425
(dp2426
g73
(dp2427
g81
I3
ssg82
g2421
sg75
(lp2428
g1035
asbasbasbag68
(g84
g70
NtRp2429
(dp2430
g73
(dp2431
sg82
g2068
sg75
(lp2432
g68
(g89
g70
NtRp2433
(dp2434
g73
(dp2435
g93
g94
ssg82
g2429
sg75
(lp2436
S'SERVER_PROTOCOL'
p2437
asbag68
(g89
g70
NtRp2438
(dp2439
g73
(dp2440
g100
g101
ssg82
g2429
sg75
(lp2441
S':'
asbag68
(g89
g70
NtRp2442
(dp2443
g73
(dp2444
sg82
g2429
sg75
(lp2445
g68
(g69
g70
NtRp2446
(dp2447
g73
(dp2448
g81
I3
ssg82
g2442
sg75
(lp2449
g1057
asbasbasbag68
(g84
g70
NtRp2450
(dp2451
g73
(dp2452
sg82
g2068
sg75
(lp2453
g68
(g89
g70
NtRp2454
(dp2455
g73
(dp2456
g93
g94
ssg82
g2450
sg75
(lp2457
S'SERVER_SOFTWARE'
p2458
asbag68
(g89
g70
NtRp2459
(dp2460
g73
(dp2461
g100
g101
ssg82
g2450
sg75
(lp2462
S':'
asbag68
(g89
g70
NtRp2463
(dp2464
g73
(dp2465
sg82
g2450
sg75
(lp2466
g68
(g69
g70
NtRp2467
(dp2468
g73
(dp2469
g81
I3
ssg82
g2463
sg75
(lp2470
g1079
asbasbasbag68
(g84
g70
NtRp2471
(dp2472
g73
(dp2473
sg82
g2068
sg75
(lp2474
g68
(g89
g70
NtRp2475
(dp2476
g73
(dp2477
g93
g94
ssg82
g2471
sg75
(lp2478
S'wsgi.errors'
p2479
asbag68
(g89
g70
NtRp2480
(dp2481
g73
(dp2482
g100
g101
ssg82
g2471
sg75
(lp2483
S':'
asbag68
(g89
g70
NtRp2484
(dp2485
g73
(dp2486
sg82
g2471
sg75
(lp2487
g68
(g69
g70
NtRp2488
(dp2489
g73
(dp2490
g81
I3
ssg82
g2484
sg75
(lp2491
S"<open file '<stderr>', mode 'w' at 0x013350D0>"
p2492
asbasbasbag68
(g84
g70
NtRp2493
(dp2494
g73
(dp2495
sg82
g2068
sg75
(lp2496
g68
(g89
g70
NtRp2497
(dp2498
g73
(dp2499
g93
g94
ssg82
g2493
sg75
(lp2500
S'wsgi.file_wrapper'
p2501
asbag68
(g89
g70
NtRp2502
(dp2503
g73
(dp2504
g100
g101
ssg82
g2493
sg75
(lp2505
S':'
asbag68
(g89
g70
NtRp2506
(dp2507
g73
(dp2508
sg82
g2493
sg75
(lp2509
g68
(g69
g70
NtRp2510
(dp2511
g73
(dp2512
g81
I3
ssg82
g2506
sg75
(lp2513
S'<class wsgiref.util.FileWrapper at 0x02744880>'
p2514
asbasbasbag68
(g84
g70
NtRp2515
(dp2516
g73
(dp2517
sg82
g2068
sg75
(lp2518
g68
(g89
g70
NtRp2519
(dp2520
g73
(dp2521
g93
g94
ssg82
g2515
sg75
(lp2522
S'wsgi.input'
p2523
asbag68
(g89
g70
NtRp2524
(dp2525
g73
(dp2526
g100
g101
ssg82
g2515
sg75
(lp2527
S':'
asbag68
(g89
g70
NtRp2528
(dp2529
g73
(dp2530
sg82
g2515
sg75
(lp2531
g68
(g69
g70
NtRp2532
(dp2533
g73
(dp2534
g81
I3
ssg82
g2528
sg75
(lp2535
S'<cStringIO.StringO object at 0x02B15860>'
p2536
asbasbasbag68
(g84
g70
NtRp2537
(dp2538
g73
(dp2539
sg82
g2068
sg75
(lp2540
g68
(g89
g70
NtRp2541
(dp2542
g73
(dp2543
g93
g94
ssg82
g2537
sg75
(lp2544
S'wsgi.multiprocess'
p2545
asbag68
(g89
g70
NtRp2546
(dp2547
g73
(dp2548
g100
g101
ssg82
g2537
sg75
(lp2549
S':'
asbag68
(g89
g70
NtRp2550
(dp2551
g73
(dp2552
sg82
g2537
sg75
(lp2553
g68
(g69
g70
NtRp2554
(dp2555
g73
(dp2556
g81
I3
ssg82
g2550
sg75
(lp2557
g111
asbasbasbag68
(g84
g70
NtRp2558
(dp2559
g73
(dp2560
sg82
g2068
sg75
(lp2561
g68
(g89
g70
NtRp2562
(dp2563
g73
(dp2564
g93
g94
ssg82
g2558
sg75
(lp2565
S'wsgi.multithread'
p2566
asbag68
(g89
g70
NtRp2567
(dp2568
g73
(dp2569
g100
g101
ssg82
g2558
sg75
(lp2570
S':'
asbag68
(g89
g70
NtRp2571
(dp2572
g73
(dp2573
sg82
g2558
sg75
(lp2574
g68
(g69
g70
NtRp2575
(dp2576
g73
(dp2577
g81
I3
ssg82
g2571
sg75
(lp2578
g1319
asbasbasbag68
(g84
g70
NtRp2579
(dp2580
g73
(dp2581
sg82
g2068
sg75
(lp2582
g68
(g89
g70
NtRp2583
(dp2584
g73
(dp2585
g93
g94
ssg82
g2579
sg75
(lp2586
S'wsgi.run_once'
p2587
asbag68
(g89
g70
NtRp2588
(dp2589
g73
(dp2590
g100
g101
ssg82
g2579
sg75
(lp2591
S':'
asbag68
(g89
g70
NtRp2592
(dp2593
g73
(dp2594
sg82
g2579
sg75
(lp2595
g68
(g69
g70
NtRp2596
(dp2597
g73
(dp2598
g81
I3
ssg82
g2592
sg75
(lp2599
g111
asbasbasbag68
(g84
g70
NtRp2600
(dp2601
g73
(dp2602
sg82
g2068
sg75
(lp2603
g68
(g89
g70
NtRp2604
(dp2605
g73
(dp2606
g93
g94
ssg82
g2600
sg75
(lp2607
S'wsgi.url_scheme'
p2608
asbag68
(g89
g70
NtRp2609
(dp2610
g73
(dp2611
g100
g101
ssg82
g2600
sg75
(lp2612
S':'
asbag68
(g89
g70
NtRp2613
(dp2614
g73
(dp2615
sg82
g2600
sg75
(lp2616
g68
(g69
g70
NtRp2617
(dp2618
g73
(dp2619
g81
I3
ssg82
g2613
sg75
(lp2620
g1362
asbasbasbag68
(g84
g70
NtRp2621
(dp2622
g73
(dp2623
sg82
g2068
sg75
(lp2624
g68
(g89
g70
NtRp2625
(dp2626
g73
(dp2627
g93
g94
ssg82
g2621
sg75
(lp2628
S'wsgi.version'
p2629
asbag68
(g89
g70
NtRp2630
(dp2631
g73
(dp2632
g100
g101
ssg82
g2621
sg75
(lp2633
S':'
asbag68
(g89
g70
NtRp2634
(dp2635
g73
(dp2636
sg82
g2621
sg75
(lp2637
g68
(g69
g70
NtRp2638
(dp2639
g73
(dp2640
g81
I3
ssg82
g2634
sg75
(lp2641
S'1'
asbasbasbasbasbasbasbasbasbasbasbasbasbsS'frames'
p2642
(lp2643
(dp2644
S'file'
p2645
S'E:\\Programming\\Python\\web2py\\gluon\\restricted.py'
p2646
sS'dump'
p2647
(dp2648
S'code'
p2649
S'"def index():\\n    \'\'\'Display a post, its comments...n index()\\nresponse._vars=response._caller(index)\\n"'
p2650
sS'layer'
p2651
S"r'E:\\Programming\\Python\\web2py\\applications\\vote_up\\controllers/default.py'"
p2652
sS'global compile2'
p2653
S'<function compile2>'
p2654
sS'ccode'
p2655
S'undefined'
p2656
ssS'lnum'
p2657
I203
sS'lines'
p2658
(dp2659
I198
S"    environment['__file__'] = layer"
p2660
sI199
S'    try:'
p2661
sI200
S'        if type(code) == types.CodeType:'
p2662
sI201
S'            ccode = code'
p2663
sI202
S'        else:'
p2664
sI203
S'            ccode = compile2(code,layer)'
p2665
sI204
S'        exec ccode in environment'
p2666
sI205
S'    except HTTP:'
p2667
sI206
S'        raise'
p2668
sI207
S'    except RestrictedError:'
p2669
ssS'call'
p2670
S'(code="def index():\\n    \'\'\'Display a post, its comments...n index()\\nresponse._vars=response._caller(index)\\n", environment={\'A\': <class \'gluon.html.A\'>, \'Auth\': <class \'gluon.tools.Auth\'>, \'B\': <class \'gluon.html.B\'>, \'BEAUTIFY\': <class \'gluon.html.BEAUTIFY\'>, \'BODY\': <class \'gluon.html.BODY\'>, \'BR\': <class \'gluon.html.BR\'>, \'BUTTON\': <class \'gluon.html.BUTTON\'>, \'CAT\': <class \'gluon.html.CAT\'>, \'CENTER\': <class \'gluon.html.CENTER\'>, \'CLEANUP\': <class \'gluon.validators.CLEANUP\'>, ...}, layer=r\'E:\\Programming\\Python\\web2py\\applications\\vote_up\\controllers/default.py\')'
p2671
sS'func'
p2672
S'restricted'
p2673
sa(dp2674
g2645
S'E:\\Programming\\Python\\web2py\\gluon\\restricted.py'
p2675
sg2647
(dp2676
S'builtincompile'
p2677
S'<built-in function compile>'
p2678
sS'code'
p2679
S'"def index():\\n    \'\'\'Display a post, its comments...n index()\\nresponse._vars=response._caller(index)\\n"'
p2680
sS'code.rstrip'
p2681
S'<built-in method rstrip of str object>'
p2682
sS').replace'
p2683
g2656
sS'layer'
p2684
S"r'E:\\Programming\\Python\\web2py\\applications\\vote_up\\controllers/default.py'"
p2685
ssg2657
I189
sg2658
(dp2686
I192
S'    """'
p2687
sI193
S'    runs code in environment and returns the output. if an exception occurs'
p2688
sI184
S''
sI185
S'def compile2(code,layer):'
p2689
sI186
S'    """'
p2690
sI187
S"    The +'\\n' is necessary else compile fails when code ends in a comment."
p2691
sI188
S'    """'
p2692
sI189
S"    return compile(code.rstrip().replace('\\r\\n','\\n')+'\\n', layer, 'exec')"
p2693
sI190
S''
sI191
S"def restricted(code, environment=None, layer='Unknown'):"
p2694
ssg2670
S'(code="def index():\\n    \'\'\'Display a post, its comments...n index()\\nresponse._vars=response._caller(index)\\n", layer=r\'E:\\Programming\\Python\\web2py\\applications\\vote_up\\controllers/default.py\')'
p2695
sg2672
S'compile2'
p2696
sasS'pyver'
p2697
S'Python 2.7.2: C:\\Python27\\python.exe'
p2698
sS'session'
p2699
g68
(g69
g70
NtRp2700
(dp2701
g73
(dp2702
sg75
(lp2703
g68
(g77
g70
NtRp2704
(dp2705
g73
(dp2706
g81
I5
ssg82
Nsg75
(lp2707
sbasbsS'etype'
p2708
S"<type 'exceptions.SyntaxError'>"
p2709
sS'date'
p2710
S'Tue Feb 14 10:55:33 2012'
p2711
sS'response'
p2712
g68
(g69
g70
NtRp2713
(dp2714
g73
(dp2715
sg75
(lp2716
g68
(g77
g70
NtRp2717
(dp2718
g73
(dp2719
g81
I5
ssg82
Nsg75
(lp2720
g68
(g84
g70
NtRp2721
(dp2722
g73
(dp2723
sg82
g2717
sg75
(lp2724
g68
(g89
g70
NtRp2725
(dp2726
g73
(dp2727
g93
g94
ssg82
g2721
sg75
(lp2728
g166
asbag68
(g89
g70
NtRp2729
(dp2730
g73
(dp2731
g100
g101
ssg82
g2721
sg75
(lp2732
S':'
asbag68
(g89
g70
NtRp2733
(dp2734
g73
(dp2735
sg82
g2721
sg75
(lp2736
g68
(g69
g70
NtRp2737
(dp2738
g73
(dp2739
g81
I5
ssg82
g2733
sg75
(lp2740
S'<cStringIO.StringO object at 0x02ACF1C0>'
p2741
asbasbasbag68
(g84
g70
NtRp2742
(dp2743
g73
(dp2744
sg82
g2717
sg75
(lp2745
g68
(g89
g70
NtRp2746
(dp2747
g73
(dp2748
g93
g94
ssg82
g2742
sg75
(lp2749
g232
asbag68
(g89
g70
NtRp2750
(dp2751
g73
(dp2752
g100
g101
ssg82
g2742
sg75
(lp2753
S':'
asbag68
(g89
g70
NtRp2754
(dp2755
g73
(dp2756
sg82
g2742
sg75
(lp2757
g68
(g69
g70
NtRp2758
(dp2759
g73
(dp2760
g81
I5
ssg82
g2754
sg75
(lp2761
g68
(g77
g70
NtRp2762
(dp2763
g73
(dp2764
g81
I4
ssg82
Nsg75
(lp2765
g68
(g84
g70
NtRp2766
(dp2767
g73
(dp2768
sg82
g2762
sg75
(lp2769
g68
(g89
g70
NtRp2770
(dp2771
g73
(dp2772
g93
g94
ssg82
g2766
sg75
(lp2773
S'session_id_vote_up'
p2774
asbag68
(g89
g70
NtRp2775
(dp2776
g73
(dp2777
g100
g101
ssg82
g2766
sg75
(lp2778
S':'
asbag68
(g89
g70
NtRp2779
(dp2780
g73
(dp2781
sg82
g2766
sg75
(lp2782
g68
(g69
g70
NtRp2783
(dp2784
g73
(dp2785
g81
I4
ssg82
g2779
sg75
(lp2786
g68
(g77
g70
NtRp2787
(dp2788
g73
(dp2789
g81
I3
ssg82
Nsg75
(lp2790
g68
(g84
g70
NtRp2791
(dp2792
g73
(dp2793
sg82
g2787
sg75
(lp2794
g68
(g89
g70
NtRp2795
(dp2796
g73
(dp2797
g93
g94
ssg82
g2791
sg75
(lp2798
g282
asbag68
(g89
g70
NtRp2799
(dp2800
g73
(dp2801
g100
g101
ssg82
g2791
sg75
(lp2802
S':'
asbag68
(g89
g70
NtRp2803
(dp2804
g73
(dp2805
sg82
g2791
sg75
(lp2806
g68
(g69
g70
NtRp2807
(dp2808
g73
(dp2809
g81
I3
ssg82
g2803
sg75
(lp2810
S''
asbasbasbag68
(g84
g70
NtRp2811
(dp2812
g73
(dp2813
sg82
g2787
sg75
(lp2814
g68
(g89
g70
NtRp2815
(dp2816
g73
(dp2817
g93
g94
ssg82
g2811
sg75
(lp2818
g303
asbag68
(g89
g70
NtRp2819
(dp2820
g73
(dp2821
g100
g101
ssg82
g2811
sg75
(lp2822
S':'
asbag68
(g89
g70
NtRp2823
(dp2824
g73
(dp2825
sg82
g2811
sg75
(lp2826
g68
(g69
g70
NtRp2827
(dp2828
g73
(dp2829
g81
I3
ssg82
g2823
sg75
(lp2830
S''
asbasbasbag68
(g84
g70
NtRp2831
(dp2832
g73
(dp2833
sg82
g2787
sg75
(lp2834
g68
(g89
g70
NtRp2835
(dp2836
g73
(dp2837
g93
g94
ssg82
g2831
sg75
(lp2838
g324
asbag68
(g89
g70
NtRp2839
(dp2840
g73
(dp2841
g100
g101
ssg82
g2831
sg75
(lp2842
S':'
asbag68
(g89
g70
NtRp2843
(dp2844
g73
(dp2845
sg82
g2831
sg75
(lp2846
g68
(g69
g70
NtRp2847
(dp2848
g73
(dp2849
g81
I3
ssg82
g2843
sg75
(lp2850
S''
asbasbasbag68
(g84
g70
NtRp2851
(dp2852
g73
(dp2853
sg82
g2787
sg75
(lp2854
g68
(g89
g70
NtRp2855
(dp2856
g73
(dp2857
g93
g94
ssg82
g2851
sg75
(lp2858
g345
asbag68
(g89
g70
NtRp2859
(dp2860
g73
(dp2861
g100
g101
ssg82
g2851
sg75
(lp2862
S':'
asbag68
(g89
g70
NtRp2863
(dp2864
g73
(dp2865
sg82
g2851
sg75
(lp2866
g68
(g69
g70
NtRp2867
(dp2868
g73
(dp2869
g81
I3
ssg82
g2863
sg75
(lp2870
S''
asbasbasbag68
(g84
g70
NtRp2871
(dp2872
g73
(dp2873
sg82
g2787
sg75
(lp2874
g68
(g89
g70
NtRp2875
(dp2876
g73
(dp2877
g93
g94
ssg82
g2871
sg75
(lp2878
g366
asbag68
(g89
g70
NtRp2879
(dp2880
g73
(dp2881
g100
g101
ssg82
g2871
sg75
(lp2882
S':'
asbag68
(g89
g70
NtRp2883
(dp2884
g73
(dp2885
sg82
g2871
sg75
(lp2886
g68
(g69
g70
NtRp2887
(dp2888
g73
(dp2889
g81
I3
ssg82
g2883
sg75
(lp2890
S''
asbasbasbag68
(g84
g70
NtRp2891
(dp2892
g73
(dp2893
sg82
g2787
sg75
(lp2894
g68
(g89
g70
NtRp2895
(dp2896
g73
(dp2897
g93
g94
ssg82
g2891
sg75
(lp2898
g387
asbag68
(g89
g70
NtRp2899
(dp2900
g73
(dp2901
g100
g101
ssg82
g2891
sg75
(lp2902
S':'
asbag68
(g89
g70
NtRp2903
(dp2904
g73
(dp2905
sg82
g2891
sg75
(lp2906
g68
(g69
g70
NtRp2907
(dp2908
g73
(dp2909
g81
I3
ssg82
g2903
sg75
(lp2910
S'/'
asbasbasbag68
(g84
g70
NtRp2911
(dp2912
g73
(dp2913
sg82
g2787
sg75
(lp2914
g68
(g89
g70
NtRp2915
(dp2916
g73
(dp2917
g93
g94
ssg82
g2911
sg75
(lp2918
g408
asbag68
(g89
g70
NtRp2919
(dp2920
g73
(dp2921
g100
g101
ssg82
g2911
sg75
(lp2922
S':'
asbag68
(g89
g70
NtRp2923
(dp2924
g73
(dp2925
sg82
g2911
sg75
(lp2926
g68
(g69
g70
NtRp2927
(dp2928
g73
(dp2929
g81
I3
ssg82
g2923
sg75
(lp2930
S''
asbasbasbag68
(g84
g70
NtRp2931
(dp2932
g73
(dp2933
sg82
g2787
sg75
(lp2934
g68
(g89
g70
NtRp2935
(dp2936
g73
(dp2937
g93
g94
ssg82
g2931
sg75
(lp2938
g429
asbag68
(g89
g70
NtRp2939
(dp2940
g73
(dp2941
g100
g101
ssg82
g2931
sg75
(lp2942
S':'
asbag68
(g89
g70
NtRp2943
(dp2944
g73
(dp2945
sg82
g2931
sg75
(lp2946
g68
(g69
g70
NtRp2947
(dp2948
g73
(dp2949
g81
I3
ssg82
g2943
sg75
(lp2950
S''
asbasbasbasbasbasbasbasbasbasbasbag68
(g84
g70
NtRp2951
(dp2952
g73
(dp2953
sg82
g2717
sg75
(lp2954
g68
(g89
g70
NtRp2955
(dp2956
g73
(dp2957
g93
g94
ssg82
g2951
sg75
(lp2958
S'files'
p2959
asbag68
(g89
g70
NtRp2960
(dp2961
g73
(dp2962
g100
g101
ssg82
g2951
sg75
(lp2963
S':'
asbag68
(g89
g70
NtRp2964
(dp2965
g73
(dp2966
sg82
g2951
sg75
(lp2967
g68
(g69
g70
NtRp2968
(dp2969
g73
(dp2970
g81
I5
ssg82
g2964
sg75
(lp2971
g68
(g77
g70
NtRp2972
(dp2973
g73
(dp2974
g81
I4
ssg82
Nsg75
(lp2975
sbasbasbasbag68
(g84
g70
NtRp2976
(dp2977
g73
(dp2978
sg82
g2717
sg75
(lp2979
g68
(g89
g70
NtRp2980
(dp2981
g73
(dp2982
g93
g94
ssg82
g2976
sg75
(lp2983
S'flash'
p2984
asbag68
(g89
g70
NtRp2985
(dp2986
g73
(dp2987
g100
g101
ssg82
g2976
sg75
(lp2988
S':'
asbag68
(g89
g70
NtRp2989
(dp2990
g73
(dp2991
sg82
g2976
sg75
(lp2992
g68
(g69
g70
NtRp2993
(dp2994
g73
(dp2995
g81
I5
ssg82
g2989
sg75
(lp2996
S''
asbasbasbag68
(g84
g70
NtRp2997
(dp2998
g73
(dp2999
sg82
g2717
sg75
(lp3000
g68
(g89
g70
NtRp3001
(dp3002
g73
(dp3003
g93
g94
ssg82
g2997
sg75
(lp3004
S'generic_patterns'
p3005
asbag68
(g89
g70
NtRp3006
(dp3007
g73
(dp3008
g100
g101
ssg82
g2997
sg75
(lp3009
S':'
asbag68
(g89
g70
NtRp3010
(dp3011
g73
(dp3012
sg82
g2997
sg75
(lp3013
g68
(g69
g70
NtRp3014
(dp3015
g73
(dp3016
g81
I5
ssg82
g3010
sg75
(lp3017
g68
(g77
g70
NtRp3018
(dp3019
g73
(dp3020
g81
I4
ssg82
Nsg75
(lp3021
g68
(g84
g70
NtRp3022
(dp3023
g73
(dp3024
sg82
g3018
sg75
(lp3025
g68
(g89
g70
NtRp3026
(dp3027
g73
(dp3028
sg82
g3022
sg75
(lp3029
g68
(g69
g70
NtRp3030
(dp3031
g73
(dp3032
g81
I4
ssg82
g3026
sg75
(lp3033
S'*'
asbasbasbasbasbasbasbag68
(g84
g70
NtRp3034
(dp3035
g73
(dp3036
sg82
g2717
sg75
(lp3037
g68
(g89
g70
NtRp3038
(dp3039
g73
(dp3040
g93
g94
ssg82
g3034
sg75
(lp3041
S'headers'
p3042
asbag68
(g89
g70
NtRp3043
(dp3044
g73
(dp3045
g100
g101
ssg82
g3034
sg75
(lp3046
S':'
asbag68
(g89
g70
NtRp3047
(dp3048
g73
(dp3049
sg82
g3034
sg75
(lp3050
g68
(g69
g70
NtRp3051
(dp3052
g73
(dp3053
g81
I5
ssg82
g3047
sg75
(lp3054
g68
(g77
g70
NtRp3055
(dp3056
g73
(dp3057
g81
I4
ssg82
Nsg75
(lp3058
g68
(g84
g70
NtRp3059
(dp3060
g73
(dp3061
sg82
g3055
sg75
(lp3062
g68
(g89
g70
NtRp3063
(dp3064
g73
(dp3065
g93
g94
ssg82
g3059
sg75
(lp3066
S'Cache-Control'
p3067
asbag68
(g89
g70
NtRp3068
(dp3069
g73
(dp3070
g100
g101
ssg82
g3059
sg75
(lp3071
S':'
asbag68
(g89
g70
NtRp3072
(dp3073
g73
(dp3074
sg82
g3059
sg75
(lp3075
g68
(g69
g70
NtRp3076
(dp3077
g73
(dp3078
g81
I4
ssg82
g3072
sg75
(lp3079
S'no-store, no-cache, must-revalidate, post-check=0, pre-check=0'
p3080
asbasbasbag68
(g84
g70
NtRp3081
(dp3082
g73
(dp3083
sg82
g3055
sg75
(lp3084
g68
(g89
g70
NtRp3085
(dp3086
g73
(dp3087
g93
g94
ssg82
g3081
sg75
(lp3088
S'Content-Type'
p3089
asbag68
(g89
g70
NtRp3090
(dp3091
g73
(dp3092
g100
g101
ssg82
g3081
sg75
(lp3093
S':'
asbag68
(g89
g70
NtRp3094
(dp3095
g73
(dp3096
sg82
g3081
sg75
(lp3097
g68
(g69
g70
NtRp3098
(dp3099
g73
(dp3100
g81
I4
ssg82
g3094
sg75
(lp3101
S'text/html; charset=utf-8'
p3102
asbasbasbag68
(g84
g70
NtRp3103
(dp3104
g73
(dp3105
sg82
g3055
sg75
(lp3106
g68
(g89
g70
NtRp3107
(dp3108
g73
(dp3109
g93
g94
ssg82
g3103
sg75
(lp3110
S'Expires'
p3111
asbag68
(g89
g70
NtRp3112
(dp3113
g73
(dp3114
g100
g101
ssg82
g3103
sg75
(lp3115
S':'
asbag68
(g89
g70
NtRp3116
(dp3117
g73
(dp3118
sg82
g3103
sg75
(lp3119
g68
(g69
g70
NtRp3120
(dp3121
g73
(dp3122
g81
I4
ssg82
g3116
sg75
(lp3123
S'Tue, 14 Feb 2012 05:25:32 GMT'
p3124
asbasbasbag68
(g84
g70
NtRp3125
(dp3126
g73
(dp3127
sg82
g3055
sg75
(lp3128
g68
(g89
g70
NtRp3129
(dp3130
g73
(dp3131
g93
g94
ssg82
g3125
sg75
(lp3132
S'Pragma'
p3133
asbag68
(g89
g70
NtRp3134
(dp3135
g73
(dp3136
g100
g101
ssg82
g3125
sg75
(lp3137
S':'
asbag68
(g89
g70
NtRp3138
(dp3139
g73
(dp3140
sg82
g3125
sg75
(lp3141
g68
(g69
g70
NtRp3142
(dp3143
g73
(dp3144
g81
I4
ssg82
g3138
sg75
(lp3145
S'no-cache'
p3146
asbasbasbag68
(g84
g70
NtRp3147
(dp3148
g73
(dp3149
sg82
g3055
sg75
(lp3150
g68
(g89
g70
NtRp3151
(dp3152
g73
(dp3153
g93
g94
ssg82
g3147
sg75
(lp3154
S'X-Powered-By'
p3155
asbag68
(g89
g70
NtRp3156
(dp3157
g73
(dp3158
g100
g101
ssg82
g3147
sg75
(lp3159
S':'
asbag68
(g89
g70
NtRp3160
(dp3161
g73
(dp3162
sg82
g3147
sg75
(lp3163
g68
(g69
g70
NtRp3164
(dp3165
g73
(dp3166
g81
I4
ssg82
g3160
sg75
(lp3167
S'web2py'
p3168
asbasbasbasbasbasbasbag68
(g84
g70
NtRp3169
(dp3170
g73
(dp3171
sg82
g2717
sg75
(lp3172
g68
(g89
g70
NtRp3173
(dp3174
g73
(dp3175
g93
g94
ssg82
g3169
sg75
(lp3176
S'menu'
p3177
asbag68
(g89
g70
NtRp3178
(dp3179
g73
(dp3180
g100
g101
ssg82
g3169
sg75
(lp3181
S':'
asbag68
(g89
g70
NtRp3182
(dp3183
g73
(dp3184
sg82
g3169
sg75
(lp3185
g68
(g69
g70
NtRp3186
(dp3187
g73
(dp3188
g81
I5
ssg82
g3182
sg75
(lp3189
g68
(g77
g70
NtRp3190
(dp3191
g73
(dp3192
g81
I4
ssg82
Nsg75
(lp3193
sbasbasbasbag68
(g84
g70
NtRp3194
(dp3195
g73
(dp3196
sg82
g2717
sg75
(lp3197
g68
(g89
g70
NtRp3198
(dp3199
g73
(dp3200
g93
g94
ssg82
g3194
sg75
(lp3201
S'meta'
p3202
asbag68
(g89
g70
NtRp3203
(dp3204
g73
(dp3205
g100
g101
ssg82
g3194
sg75
(lp3206
S':'
asbag68
(g89
g70
NtRp3207
(dp3208
g73
(dp3209
sg82
g3194
sg75
(lp3210
g68
(g69
g70
NtRp3211
(dp3212
g73
(dp3213
g81
I5
ssg82
g3207
sg75
(lp3214
g68
(g77
g70
NtRp3215
(dp3216
g73
(dp3217
g81
I4
ssg82
Nsg75
(lp3218
sbasbasbasbag68
(g84
g70
NtRp3219
(dp3220
g73
(dp3221
sg82
g2717
sg75
(lp3222
g68
(g89
g70
NtRp3223
(dp3224
g73
(dp3225
g93
g94
ssg82
g3219
sg75
(lp3226
S'postprocessing'
p3227
asbag68
(g89
g70
NtRp3228
(dp3229
g73
(dp3230
g100
g101
ssg82
g3219
sg75
(lp3231
S':'
asbag68
(g89
g70
NtRp3232
(dp3233
g73
(dp3234
sg82
g3219
sg75
(lp3235
g68
(g69
g70
NtRp3236
(dp3237
g73
(dp3238
g81
I5
ssg82
g3232
sg75
(lp3239
g68
(g77
g70
NtRp3240
(dp3241
g73
(dp3242
g81
I4
ssg82
Nsg75
(lp3243
sbasbasbasbag68
(g84
g70
NtRp3244
(dp3245
g73
(dp3246
sg82
g2717
sg75
(lp3247
g68
(g89
g70
NtRp3248
(dp3249
g73
(dp3250
g93
g94
ssg82
g3244
sg75
(lp3251
S'session_filename'
p3252
asbag68
(g89
g70
NtRp3253
(dp3254
g73
(dp3255
g100
g101
ssg82
g3244
sg75
(lp3256
S':'
asbag68
(g89
g70
NtRp3257
(dp3258
g73
(dp3259
sg82
g3244
sg75
(lp3260
g68
(g69
g70
NtRp3261
(dp3262
g73
(dp3263
g81
I5
ssg82
g3257
sg75
(lp3264
S'E:\\Programming\\Python\\web2py\\applications\\vote_up\\sessions\\127.0.0.1-07cf1d6c-a548-4ee3-bd97-fd1648d08c94'
p3265
asbasbasbag68
(g84
g70
NtRp3266
(dp3267
g73
(dp3268
sg82
g2717
sg75
(lp3269
g68
(g89
g70
NtRp3270
(dp3271
g73
(dp3272
g93
g94
ssg82
g3266
sg75
(lp3273
S'session_id'
p3274
asbag68
(g89
g70
NtRp3275
(dp3276
g73
(dp3277
g100
g101
ssg82
g3266
sg75
(lp3278
S':'
asbag68
(g89
g70
NtRp3279
(dp3280
g73
(dp3281
sg82
g3266
sg75
(lp3282
g68
(g69
g70
NtRp3283
(dp3284
g73
(dp3285
g81
I5
ssg82
g3279
sg75
(lp3286
S'127.0.0.1-07cf1d6c-a548-4ee3-bd97-fd1648d08c94'
p3287
asbasbasbag68
(g84
g70
NtRp3288
(dp3289
g73
(dp3290
sg82
g2717
sg75
(lp3291
g68
(g89
g70
NtRp3292
(dp3293
g73
(dp3294
g93
g94
ssg82
g3288
sg75
(lp3295
S'session_id_name'
p3296
asbag68
(g89
g70
NtRp3297
(dp3298
g73
(dp3299
g100
g101
ssg82
g3288
sg75
(lp3300
S':'
asbag68
(g89
g70
NtRp3301
(dp3302
g73
(dp3303
sg82
g3288
sg75
(lp3304
g68
(g69
g70
NtRp3305
(dp3306
g73
(dp3307
g81
I5
ssg82
g3301
sg75
(lp3308
g2774
asbasbasbag68
(g84
g70
NtRp3309
(dp3310
g73
(dp3311
sg82
g2717
sg75
(lp3312
g68
(g89
g70
NtRp3313
(dp3314
g73
(dp3315
g93
g94
ssg82
g3309
sg75
(lp3316
S'session_new'
p3317
asbag68
(g89
g70
NtRp3318
(dp3319
g73
(dp3320
g100
g101
ssg82
g3309
sg75
(lp3321
S':'
asbag68
(g89
g70
NtRp3322
(dp3323
g73
(dp3324
sg82
g3309
sg75
(lp3325
g68
(g69
g70
NtRp3326
(dp3327
g73
(dp3328
g81
I5
ssg82
g3322
sg75
(lp3329
g1319
asbasbasbag68
(g84
g70
NtRp3330
(dp3331
g73
(dp3332
sg82
g2717
sg75
(lp3333
g68
(g89
g70
NtRp3334
(dp3335
g73
(dp3336
g93
g94
ssg82
g3330
sg75
(lp3337
S'status'
p3338
asbag68
(g89
g70
NtRp3339
(dp3340
g73
(dp3341
g100
g101
ssg82
g3330
sg75
(lp3342
S':'
asbag68
(g89
g70
NtRp3343
(dp3344
g73
(dp3345
sg82
g3330
sg75
(lp3346
g68
(g69
g70
NtRp3347
(dp3348
g73
(dp3349
g81
I5
ssg82
g3343
sg75
(lp3350
S'200'
p3351
asbasbasbag68
(g84
g70
NtRp3352
(dp3353
g73
(dp3354
sg82
g2717
sg75
(lp3355
g68
(g89
g70
NtRp3356
(dp3357
g73
(dp3358
g93
g94
ssg82
g3352
sg75
(lp3359
g1983
asbag68
(g89
g70
NtRp3360
(dp3361
g73
(dp3362
g100
g101
ssg82
g3352
sg75
(lp3363
S':'
asbag68
(g89
g70
NtRp3364
(dp3365
g73
(dp3366
sg82
g3352
sg75
(lp3367
g68
(g69
g70
NtRp3368
(dp3369
g73
(dp3370
g81
I5
ssg82
g3364
sg75
(lp3371
g1996
asbasbasbag68
(g84
g70
NtRp3372
(dp3373
g73
(dp3374
sg82
g2717
sg75
(lp3375
g68
(g89
g70
NtRp3376
(dp3377
g73
(dp3378
g93
g94
ssg82
g3372
sg75
(lp3379
S'view'
p3380
asbag68
(g89
g70
NtRp3381
(dp3382
g73
(dp3383
g100
g101
ssg82
g3372
sg75
(lp3384
S':'
asbag68
(g89
g70
NtRp3385
(dp3386
g73
(dp3387
sg82
g3372
sg75
(lp3388
g68
(g69
g70
NtRp3389
(dp3390
g73
(dp3391
g81
I5
ssg82
g3385
sg75
(lp3392
S'default/index.html'
p3393
asbasbasbasbasbsS'locals'
p3394
(dp3395
g4
S"r'E:\\Programming\\Python\\web2py\\applications\\vote_up\\controllers/default.py'"
p3396
sg6
S'"def index():\\n    \'\'\'Display a post, its comments...n index()\\nresponse._vars=response._caller(index)\\n"'
p3397
sssS'traceback'
p3398
S'Traceback (most recent call last):\n  File "E:\\Programming\\Python\\web2py\\gluon\\restricted.py", line 203, in restricted\n    ccode = compile2(code,layer)\n  File "E:\\Programming\\Python\\web2py\\gluon\\restricted.py", line 189, in compile2\n    return compile(code.rstrip().replace(\'\\r\\n\',\'\\n\')+\'\\n\', layer, \'exec\')\n  File "E:\\Programming\\Python\\web2py\\applications\\vote_up\\controllers/default.py", line 3\n    posts=db(db.posts).select(orderby=(!db.posts.votes))\n                                       ^\nSyntaxError: invalid syntax\n'
p3399
s.