(dp1
S'time'
p2
(dp3
S'type'
p4
S'datetime'
p5
sS'sortable'
p6
I5
sS'sql'
p7
S'TIMESTAMP'
p8
ssS'post'
p9
(dp10
g4
S'reference posts'
p11
sg6
I3
sg7
S'INTEGER REFERENCES posts(id) ON DELETE CASCADE'
p12
ssS'votes'
p13
(dp14
g4
S'integer'
p15
sg6
I4
sg7
S'INTEGER'
p16
ssS'message'
p17
(dp18
g4
S'string'
p19
sg6
I2
sg7
S'CHAR(512)'
p20
ssS'id'
p21
(dp22
g4
S'id'
p23
sg6
I1
sg7
S'INTEGER PRIMARY KEY AUTOINCREMENT'
p24
ss.