(dp1
S'votes'
p2
(dp3
S'type'
p4
S'integer'
p5
sS'sortable'
p6
I4
sS'sql'
p7
S'INTEGER'
p8
ssS'title'
p9
(dp10
g4
S'string'
p11
sg6
I2
sg7
S'CHAR(512)'
p12
ssS'post'
p13
(dp14
S'type'
p15
S'text'
p16
sS'sortable'
p17
I3
sS'sql'
p18
S'TEXT'
p19
ssS'time'
p20
(dp21
g4
S'datetime'
p22
sg6
I5
sg7
S'TIMESTAMP'
p23
ssS'message'
p24
(dp25
g4
S'text'
p26
sg6
I3
sg7
S'TEXT'
p27
ssS'id'
p28
(dp29
g4
S'id'
p30
sg6
I1
sg7
S'INTEGER PRIMARY KEY AUTOINCREMENT'
p31
ss.