(dp1
S'post'
p2
(dp3
S'type'
p4
S'text'
p5
sS'sortable'
p6
I3
sS'sql'
p7
S'TEXT'
p8
ssS'votes'
p9
(dp10
S'type'
p11
S'integer'
p12
sS'sortable'
p13
I4
sS'sql'
p14
S'INTEGER'
p15
ssS'message'
p16
(dp17
g11
S'text'
p18
sg13
I3
sg14
S'TEXT'
p19
ssS'id'
p20
(dp21
g11
S'id'
p22
sg13
I1
sg14
S'INTEGER PRIMARY KEY AUTOINCREMENT'
p23
ssS'title'
p24
(dp25
g11
S'string'
p26
sg13
I2
sg14
S'CHAR(512)'
p27
ss.